
main.elf:     file format elf32-littlearm


Disassembly of section .text:

08000000 <vector_table>:
 8000000:	00 40 01 20 f9 01 00 08 f7 01 00 08 f5 01 00 08     .@. ............
 8000010:	f5 01 00 08 f5 01 00 08 f5 01 00 08 00 00 00 00     ................
	...
 800002c:	f7 01 00 08 f7 01 00 08 00 00 00 00 f7 01 00 08     ................
 800003c:	f7 01 00 08 f5 01 00 08 f5 01 00 08 f5 01 00 08     ................
 800004c:	f5 01 00 08 f5 01 00 08 f5 01 00 08 f5 01 00 08     ................
 800005c:	f5 01 00 08 f5 01 00 08 f5 01 00 08 f5 01 00 08     ................
 800006c:	f5 01 00 08 f5 01 00 08 f5 01 00 08 f5 01 00 08     ................
 800007c:	f5 01 00 08 f5 01 00 08 f5 01 00 08 f5 01 00 08     ................
 800008c:	f5 01 00 08 f5 01 00 08 f5 01 00 08 f5 01 00 08     ................
 800009c:	f5 01 00 08 f5 01 00 08 f5 01 00 08 f5 01 00 08     ................
 80000ac:	f5 01 00 08 f5 01 00 08 f5 01 00 08 f5 01 00 08     ................
 80000bc:	f5 01 00 08 f5 01 00 08 f5 01 00 08 f5 01 00 08     ................
 80000cc:	f5 01 00 08 f5 01 00 08 f5 01 00 08 f5 01 00 08     ................
 80000dc:	f5 01 00 08 f5 01 00 08 f5 01 00 08 f5 01 00 08     ................
 80000ec:	f5 01 00 08 f5 01 00 08 f5 01 00 08 f5 01 00 08     ................
 80000fc:	f5 01 00 08 f5 01 00 08 f5 01 00 08 f5 01 00 08     ................
 800010c:	f5 01 00 08 f5 01 00 08 f5 01 00 08 f5 01 00 08     ................
 800011c:	f5 01 00 08 f5 01 00 08 f5 01 00 08 f5 01 00 08     ................
 800012c:	f5 01 00 08 f5 01 00 08 f5 01 00 08 f5 01 00 08     ................
 800013c:	f5 01 00 08 f5 01 00 08 f5 01 00 08 f5 01 00 08     ................
 800014c:	f5 01 00 08 f5 01 00 08 f5 01 00 08 f5 01 00 08     ................
 800015c:	f5 01 00 08 f5 01 00 08 f5 01 00 08 f5 01 00 08     ................
 800016c:	f5 01 00 08 f5 01 00 08 f5 01 00 08 f5 01 00 08     ................
 800017c:	f5 01 00 08 f5 01 00 08                             ........

08000184 <uart_put>:


static int uart_put(char c, FILE* f)
{
    (void)f;
    if( are_bits_set(ISR_ADDR, USART_ISR_TXE) )
 8000184:	f04f 2240 	mov.w	r2, #1073758208	; 0x40004000
 8000188:	f8d2 341c 	ldr.w	r3, [r2, #1052]	; 0x41c
 800018c:	f013 0380 	ands.w	r3, r3, #128	; 0x80
    {
        set_register(TDR_ADDR, (register_t)c);
 8000190:	bf1f      	itttt	ne
 8000192:	f8d2 3428 	ldrne.w	r3, [r2, #1064]	; 0x428
 8000196:	4303      	orrne	r3, r0
 8000198:	f8c2 3428 	strne.w	r3, [r2, #1064]	; 0x428
        return 1;
 800019c:	2001      	movne	r0, #1
    }

    return 0; 
 800019e:	bf08      	it	eq
 80001a0:	4618      	moveq	r0, r3
}
 80001a2:	4770      	bx	lr

080001a4 <uart_get>:

static int uart_get(FILE* f)
{ 
    (void)f;
    return 0; 
}
 80001a4:	2000      	movs	r0, #0
 80001a6:	4770      	bx	lr

080001a8 <uart_flush>:
 80001a8:	2000      	movs	r0, #0
 80001aa:	4770      	bx	lr

080001ac <main>:
#include <stdio.h>
#include "inc/stm32_usart.h"

int main(void)
{  
 80001ac:	b508      	push	{r3, lr}
    clear_register(CR1_ADDR, USART_CR1_M);
 80001ae:	f04f 2340 	mov.w	r3, #1073758208	; 0x40004000
    uart_init();
    while (true)
    {
        fputs("Hello world!", stdout);
 80001b2:	4d0e      	ldr	r5, [pc, #56]	; (80001ec <main+0x40>)
 80001b4:	f8d3 2400 	ldr.w	r2, [r3, #1024]	; 0x400
    clear_register(CR2_ADDR, USART_CR2_STOP);
 80001b8:	f8d3 1404 	ldr.w	r1, [r3, #1028]	; 0x404
 80001bc:	4c0c      	ldr	r4, [pc, #48]	; (80001f0 <main+0x44>)
        case false: clear_register(CR1_ADDR, USART_CR1_OVER8);  break;
 80001be:	f422 4214 	bic.w	r2, r2, #37888	; 0x9400
 80001c2:	f022 0201 	bic.w	r2, r2, #1
 80001c6:	f8c3 2400 	str.w	r2, [r3, #1024]	; 0x400
    set_register(BRR_ADDR, USART_div );
 80001ca:	f8d3 240c 	ldr.w	r2, [r3, #1036]	; 0x40c
 80001ce:	f442 721c 	orr.w	r2, r2, #624	; 0x270
    clear_register(CR2_ADDR, USART_CR2_STOP);
 80001d2:	f421 5140 	bic.w	r1, r1, #12288	; 0x3000
    set_register(BRR_ADDR, USART_div );
 80001d6:	f042 0201 	orr.w	r2, r2, #1
    clear_register(CR2_ADDR, USART_CR2_STOP);
 80001da:	f8c3 1404 	str.w	r1, [r3, #1028]	; 0x404
    set_register(BRR_ADDR, USART_div );
 80001de:	f8c3 240c 	str.w	r2, [r3, #1036]	; 0x40c
 80001e2:	4629      	mov	r1, r5
 80001e4:	4620      	mov	r0, r4
 80001e6:	f000 f89b 	bl	8000320 <fputs>
    while (true)
 80001ea:	e7fa      	b.n	80001e2 <main+0x36>
 80001ec:	20000000 	.word	0x20000000
 80001f0:	08001e30 	.word	0x08001e30

080001f4 <blocking_handler>:

}

void blocking_handler(void)
{
	while (1);
 80001f4:	e7fe      	b.n	80001f4 <blocking_handler>

080001f6 <null_handler>:
}

void null_handler(void)
{
	/* Do nothing. */
}
 80001f6:	4770      	bx	lr

080001f8 <reset_handler>:
{
 80001f8:	b538      	push	{r3, r4, r5, lr}
	for (src = &_data_loadaddr, dest = &_data;
 80001fa:	4a1d      	ldr	r2, [pc, #116]	; (8000270 <reset_handler+0x78>)
 80001fc:	4b1d      	ldr	r3, [pc, #116]	; (8000274 <reset_handler+0x7c>)
 80001fe:	491e      	ldr	r1, [pc, #120]	; (8000278 <reset_handler+0x80>)
 8000200:	428b      	cmp	r3, r1
 8000202:	d320      	bcc.n	8000246 <reset_handler+0x4e>
	while (dest < &_ebss) {
 8000204:	4a1d      	ldr	r2, [pc, #116]	; (800027c <reset_handler+0x84>)
		*dest++ = 0;
 8000206:	2100      	movs	r1, #0
	while (dest < &_ebss) {
 8000208:	4293      	cmp	r3, r2
 800020a:	d321      	bcc.n	8000250 <reset_handler+0x58>
	SCB_CCR |= SCB_CCR_STKALIGN;
 800020c:	f04f 23e0 	mov.w	r3, #3758153728	; 0xe000e000
	for (fp = &__preinit_array_start; fp < &__preinit_array_end; fp++) {
 8000210:	4c1b      	ldr	r4, [pc, #108]	; (8000280 <reset_handler+0x88>)
	SCB_CCR |= SCB_CCR_STKALIGN;
 8000212:	f8d3 2d14 	ldr.w	r2, [r3, #3348]	; 0xd14
	for (fp = &__preinit_array_start; fp < &__preinit_array_end; fp++) {
 8000216:	4d1b      	ldr	r5, [pc, #108]	; (8000284 <reset_handler+0x8c>)
	SCB_CCR |= SCB_CCR_STKALIGN;
 8000218:	f442 7200 	orr.w	r2, r2, #512	; 0x200
 800021c:	f8c3 2d14 	str.w	r2, [r3, #3348]	; 0xd14
#include <libopencm3/cm3/scb.h>

static void pre_main(void)
{
	/* Enable access to Floating-Point coprocessor. */
	SCB_CPACR |= SCB_CPACR_FULL * (SCB_CPACR_CP10 | SCB_CPACR_CP11);
 8000220:	f8d3 2d88 	ldr.w	r2, [r3, #3464]	; 0xd88
 8000224:	f442 0270 	orr.w	r2, r2, #15728640	; 0xf00000
 8000228:	f8c3 2d88 	str.w	r2, [r3, #3464]	; 0xd88
	for (fp = &__preinit_array_start; fp < &__preinit_array_end; fp++) {
 800022c:	42ac      	cmp	r4, r5
 800022e:	d312      	bcc.n	8000256 <reset_handler+0x5e>
	for (fp = &__init_array_start; fp < &__init_array_end; fp++) {
 8000230:	4c15      	ldr	r4, [pc, #84]	; (8000288 <reset_handler+0x90>)
 8000232:	4d16      	ldr	r5, [pc, #88]	; (800028c <reset_handler+0x94>)
 8000234:	42ac      	cmp	r4, r5
 8000236:	d312      	bcc.n	800025e <reset_handler+0x66>
	(void)main();
 8000238:	f7ff ffb8 	bl	80001ac <main>
	for (fp = &__fini_array_start; fp < &__fini_array_end; fp++) {
 800023c:	4c14      	ldr	r4, [pc, #80]	; (8000290 <reset_handler+0x98>)
 800023e:	4d15      	ldr	r5, [pc, #84]	; (8000294 <reset_handler+0x9c>)
 8000240:	42ac      	cmp	r4, r5
 8000242:	d310      	bcc.n	8000266 <reset_handler+0x6e>
}
 8000244:	bd38      	pop	{r3, r4, r5, pc}
		*dest = *src;
 8000246:	f852 0b04 	ldr.w	r0, [r2], #4
 800024a:	f843 0b04 	str.w	r0, [r3], #4
		src++, dest++) {
 800024e:	e7d7      	b.n	8000200 <reset_handler+0x8>
		*dest++ = 0;
 8000250:	f843 1b04 	str.w	r1, [r3], #4
 8000254:	e7d8      	b.n	8000208 <reset_handler+0x10>
		(*fp)();
 8000256:	f854 3b04 	ldr.w	r3, [r4], #4
 800025a:	4798      	blx	r3
	for (fp = &__preinit_array_start; fp < &__preinit_array_end; fp++) {
 800025c:	e7e6      	b.n	800022c <reset_handler+0x34>
		(*fp)();
 800025e:	f854 3b04 	ldr.w	r3, [r4], #4
 8000262:	4798      	blx	r3
	for (fp = &__init_array_start; fp < &__init_array_end; fp++) {
 8000264:	e7e6      	b.n	8000234 <reset_handler+0x3c>
		(*fp)();
 8000266:	f854 3b04 	ldr.w	r3, [r4], #4
 800026a:	4798      	blx	r3
	for (fp = &__fini_array_start; fp < &__fini_array_end; fp++) {
 800026c:	e7e8      	b.n	8000240 <reset_handler+0x48>
 800026e:	bf00      	nop
 8000270:	08001e40 	.word	0x08001e40
 8000274:	20000000 	.word	0x20000000
 8000278:	20000850 	.word	0x20000850
 800027c:	20000898 	.word	0x20000898
 8000280:	08001e40 	.word	0x08001e40
 8000284:	08001e40 	.word	0x08001e40
 8000288:	08001e40 	.word	0x08001e40
 800028c:	08001e40 	.word	0x08001e40
 8000290:	08001e40 	.word	0x08001e40
 8000294:	08001e40 	.word	0x08001e40

08000298 <_fputs_r>:
 8000298:	b530      	push	{r4, r5, lr}
 800029a:	b087      	sub	sp, #28
 800029c:	4605      	mov	r5, r0
 800029e:	4608      	mov	r0, r1
 80002a0:	4614      	mov	r4, r2
 80002a2:	9101      	str	r1, [sp, #4]
 80002a4:	f000 ffec 	bl	8001280 <strlen>
 80002a8:	aa01      	add	r2, sp, #4
 80002aa:	2301      	movs	r3, #1
 80002ac:	e9cd 0202 	strd	r0, r2, [sp, #8]
 80002b0:	9005      	str	r0, [sp, #20]
 80002b2:	9304      	str	r3, [sp, #16]
 80002b4:	b10d      	cbz	r5, 80002ba <_fputs_r+0x22>
 80002b6:	6bab      	ldr	r3, [r5, #56]	; 0x38
 80002b8:	b303      	cbz	r3, 80002fc <_fputs_r+0x64>
 80002ba:	6e63      	ldr	r3, [r4, #100]	; 0x64
 80002bc:	f013 0f01 	tst.w	r3, #1
 80002c0:	f9b4 300c 	ldrsh.w	r3, [r4, #12]
 80002c4:	b29a      	uxth	r2, r3
 80002c6:	d101      	bne.n	80002cc <_fputs_r+0x34>
 80002c8:	0598      	lsls	r0, r3, #22
 80002ca:	d521      	bpl.n	8000310 <_fputs_r+0x78>
 80002cc:	0491      	lsls	r1, r2, #18
 80002ce:	d406      	bmi.n	80002de <_fputs_r+0x46>
 80002d0:	6e62      	ldr	r2, [r4, #100]	; 0x64
 80002d2:	f443 5300 	orr.w	r3, r3, #8192	; 0x2000
 80002d6:	f422 5200 	bic.w	r2, r2, #8192	; 0x2000
 80002da:	81a3      	strh	r3, [r4, #12]
 80002dc:	6662      	str	r2, [r4, #100]	; 0x64
 80002de:	aa03      	add	r2, sp, #12
 80002e0:	4628      	mov	r0, r5
 80002e2:	4621      	mov	r1, r4
 80002e4:	f000 f828 	bl	8000338 <__sfvwrite_r>
 80002e8:	6e63      	ldr	r3, [r4, #100]	; 0x64
 80002ea:	07da      	lsls	r2, r3, #31
 80002ec:	4605      	mov	r5, r0
 80002ee:	d402      	bmi.n	80002f6 <_fputs_r+0x5e>
 80002f0:	89a3      	ldrh	r3, [r4, #12]
 80002f2:	059b      	lsls	r3, r3, #22
 80002f4:	d506      	bpl.n	8000304 <_fputs_r+0x6c>
 80002f6:	4628      	mov	r0, r5
 80002f8:	b007      	add	sp, #28
 80002fa:	bd30      	pop	{r4, r5, pc}
 80002fc:	4628      	mov	r0, r5
 80002fe:	f001 f963 	bl	80015c8 <__sinit>
 8000302:	e7da      	b.n	80002ba <_fputs_r+0x22>
 8000304:	6da0      	ldr	r0, [r4, #88]	; 0x58
 8000306:	f000 f995 	bl	8000634 <__retarget_lock_release_recursive>
 800030a:	4628      	mov	r0, r5
 800030c:	b007      	add	sp, #28
 800030e:	bd30      	pop	{r4, r5, pc}
 8000310:	6da0      	ldr	r0, [r4, #88]	; 0x58
 8000312:	f000 f98d 	bl	8000630 <__retarget_lock_acquire_recursive>
 8000316:	f9b4 300c 	ldrsh.w	r3, [r4, #12]
 800031a:	b29a      	uxth	r2, r3
 800031c:	e7d6      	b.n	80002cc <_fputs_r+0x34>
 800031e:	bf00      	nop

08000320 <fputs>:
 8000320:	b410      	push	{r4}
 8000322:	4c04      	ldr	r4, [pc, #16]	; (8000334 <fputs+0x14>)
 8000324:	4603      	mov	r3, r0
 8000326:	460a      	mov	r2, r1
 8000328:	6820      	ldr	r0, [r4, #0]
 800032a:	f85d 4b04 	ldr.w	r4, [sp], #4
 800032e:	4619      	mov	r1, r3
 8000330:	f7ff bfb2 	b.w	8000298 <_fputs_r>
 8000334:	20000010 	.word	0x20000010

08000338 <__sfvwrite_r>:
 8000338:	6893      	ldr	r3, [r2, #8]
 800033a:	2b00      	cmp	r3, #0
 800033c:	f000 8085 	beq.w	800044a <__sfvwrite_r+0x112>
 8000340:	e92d 4ff0 	stmdb	sp!, {r4, r5, r6, r7, r8, r9, sl, fp, lr}
 8000344:	f9b1 300c 	ldrsh.w	r3, [r1, #12]
 8000348:	460c      	mov	r4, r1
 800034a:	0719      	lsls	r1, r3, #28
 800034c:	4680      	mov	r8, r0
 800034e:	b083      	sub	sp, #12
 8000350:	4617      	mov	r7, r2
 8000352:	b298      	uxth	r0, r3
 8000354:	d525      	bpl.n	80003a2 <__sfvwrite_r+0x6a>
 8000356:	6923      	ldr	r3, [r4, #16]
 8000358:	b31b      	cbz	r3, 80003a2 <__sfvwrite_r+0x6a>
 800035a:	f010 0302 	ands.w	r3, r0, #2
 800035e:	683d      	ldr	r5, [r7, #0]
 8000360:	d02d      	beq.n	80003be <__sfvwrite_r+0x86>
 8000362:	f04f 0a00 	mov.w	sl, #0
 8000366:	f8df b2bc 	ldr.w	fp, [pc, #700]	; 8000624 <__sfvwrite_r+0x2ec>
 800036a:	4656      	mov	r6, sl
 800036c:	46b9      	mov	r9, r7
 800036e:	455e      	cmp	r6, fp
 8000370:	4633      	mov	r3, r6
 8000372:	4652      	mov	r2, sl
 8000374:	bf28      	it	cs
 8000376:	465b      	movcs	r3, fp
 8000378:	4640      	mov	r0, r8
 800037a:	2e00      	cmp	r6, #0
 800037c:	d052      	beq.n	8000424 <__sfvwrite_r+0xec>
 800037e:	69e1      	ldr	r1, [r4, #28]
 8000380:	6a67      	ldr	r7, [r4, #36]	; 0x24
 8000382:	47b8      	blx	r7
 8000384:	2800      	cmp	r0, #0
 8000386:	dd56      	ble.n	8000436 <__sfvwrite_r+0xfe>
 8000388:	f8d9 3008 	ldr.w	r3, [r9, #8]
 800038c:	1a1b      	subs	r3, r3, r0
 800038e:	4482      	add	sl, r0
 8000390:	1a36      	subs	r6, r6, r0
 8000392:	f8c9 3008 	str.w	r3, [r9, #8]
 8000396:	2b00      	cmp	r3, #0
 8000398:	d1e9      	bne.n	800036e <__sfvwrite_r+0x36>
 800039a:	2000      	movs	r0, #0
 800039c:	b003      	add	sp, #12
 800039e:	e8bd 8ff0 	ldmia.w	sp!, {r4, r5, r6, r7, r8, r9, sl, fp, pc}
 80003a2:	4621      	mov	r1, r4
 80003a4:	4640      	mov	r0, r8
 80003a6:	f000 ffd9 	bl	800135c <__swsetup_r>
 80003aa:	2800      	cmp	r0, #0
 80003ac:	f040 8136 	bne.w	800061c <__sfvwrite_r+0x2e4>
 80003b0:	f9b4 300c 	ldrsh.w	r3, [r4, #12]
 80003b4:	683d      	ldr	r5, [r7, #0]
 80003b6:	b298      	uxth	r0, r3
 80003b8:	f010 0302 	ands.w	r3, r0, #2
 80003bc:	d1d1      	bne.n	8000362 <__sfvwrite_r+0x2a>
 80003be:	f010 0901 	ands.w	r9, r0, #1
 80003c2:	d144      	bne.n	800044e <__sfvwrite_r+0x116>
 80003c4:	464e      	mov	r6, r9
 80003c6:	9700      	str	r7, [sp, #0]
 80003c8:	b346      	cbz	r6, 800041c <__sfvwrite_r+0xe4>
 80003ca:	0582      	lsls	r2, r0, #22
 80003cc:	f8d4 b008 	ldr.w	fp, [r4, #8]
 80003d0:	f140 8083 	bpl.w	80004da <__sfvwrite_r+0x1a2>
 80003d4:	45b3      	cmp	fp, r6
 80003d6:	465a      	mov	r2, fp
 80003d8:	f200 80b2 	bhi.w	8000540 <__sfvwrite_r+0x208>
 80003dc:	f410 6f90 	tst.w	r0, #1152	; 0x480
 80003e0:	f040 80bf 	bne.w	8000562 <__sfvwrite_r+0x22a>
 80003e4:	6820      	ldr	r0, [r4, #0]
 80003e6:	9201      	str	r2, [sp, #4]
 80003e8:	4649      	mov	r1, r9
 80003ea:	f000 fcc3 	bl	8000d74 <memmove>
 80003ee:	68a3      	ldr	r3, [r4, #8]
 80003f0:	9a01      	ldr	r2, [sp, #4]
 80003f2:	eba3 010b 	sub.w	r1, r3, fp
 80003f6:	6823      	ldr	r3, [r4, #0]
 80003f8:	60a1      	str	r1, [r4, #8]
 80003fa:	4413      	add	r3, r2
 80003fc:	46b2      	mov	sl, r6
 80003fe:	6023      	str	r3, [r4, #0]
 8000400:	2600      	movs	r6, #0
 8000402:	9b00      	ldr	r3, [sp, #0]
 8000404:	6898      	ldr	r0, [r3, #8]
 8000406:	eba0 000a 	sub.w	r0, r0, sl
 800040a:	44d1      	add	r9, sl
 800040c:	6098      	str	r0, [r3, #8]
 800040e:	2800      	cmp	r0, #0
 8000410:	d0c3      	beq.n	800039a <__sfvwrite_r+0x62>
 8000412:	f9b4 000c 	ldrsh.w	r0, [r4, #12]
 8000416:	b280      	uxth	r0, r0
 8000418:	2e00      	cmp	r6, #0
 800041a:	d1d6      	bne.n	80003ca <__sfvwrite_r+0x92>
 800041c:	e9d5 9600 	ldrd	r9, r6, [r5]
 8000420:	3508      	adds	r5, #8
 8000422:	e7d1      	b.n	80003c8 <__sfvwrite_r+0x90>
 8000424:	e9d5 a600 	ldrd	sl, r6, [r5]
 8000428:	3508      	adds	r5, #8
 800042a:	e7a0      	b.n	800036e <__sfvwrite_r+0x36>
 800042c:	4621      	mov	r1, r4
 800042e:	4640      	mov	r0, r8
 8000430:	f001 f896 	bl	8001560 <_fflush_r>
 8000434:	b380      	cbz	r0, 8000498 <__sfvwrite_r+0x160>
 8000436:	f9b4 300c 	ldrsh.w	r3, [r4, #12]
 800043a:	f043 0340 	orr.w	r3, r3, #64	; 0x40
 800043e:	f04f 30ff 	mov.w	r0, #4294967295	; 0xffffffff
 8000442:	81a3      	strh	r3, [r4, #12]
 8000444:	b003      	add	sp, #12
 8000446:	e8bd 8ff0 	ldmia.w	sp!, {r4, r5, r6, r7, r8, r9, sl, fp, pc}
 800044a:	2000      	movs	r0, #0
 800044c:	4770      	bx	lr
 800044e:	461e      	mov	r6, r3
 8000450:	46aa      	mov	sl, r5
 8000452:	4699      	mov	r9, r3
 8000454:	4618      	mov	r0, r3
 8000456:	461d      	mov	r5, r3
 8000458:	9700      	str	r7, [sp, #0]
 800045a:	b356      	cbz	r6, 80004b2 <__sfvwrite_r+0x17a>
 800045c:	b388      	cbz	r0, 80004c2 <__sfvwrite_r+0x18a>
 800045e:	464a      	mov	r2, r9
 8000460:	e9d4 1304 	ldrd	r1, r3, [r4, #16]
 8000464:	6820      	ldr	r0, [r4, #0]
 8000466:	42b2      	cmp	r2, r6
 8000468:	bf28      	it	cs
 800046a:	4632      	movcs	r2, r6
 800046c:	4288      	cmp	r0, r1
 800046e:	d905      	bls.n	800047c <__sfvwrite_r+0x144>
 8000470:	68a1      	ldr	r1, [r4, #8]
 8000472:	eb03 0b01 	add.w	fp, r3, r1
 8000476:	455a      	cmp	r2, fp
 8000478:	f300 80a6 	bgt.w	80005c8 <__sfvwrite_r+0x290>
 800047c:	4293      	cmp	r3, r2
 800047e:	dc63      	bgt.n	8000548 <__sfvwrite_r+0x210>
 8000480:	69e1      	ldr	r1, [r4, #28]
 8000482:	6a67      	ldr	r7, [r4, #36]	; 0x24
 8000484:	462a      	mov	r2, r5
 8000486:	4640      	mov	r0, r8
 8000488:	47b8      	blx	r7
 800048a:	f1b0 0b00 	subs.w	fp, r0, #0
 800048e:	ddd2      	ble.n	8000436 <__sfvwrite_r+0xfe>
 8000490:	ebb9 090b 	subs.w	r9, r9, fp
 8000494:	d0ca      	beq.n	800042c <__sfvwrite_r+0xf4>
 8000496:	2001      	movs	r0, #1
 8000498:	9a00      	ldr	r2, [sp, #0]
 800049a:	6893      	ldr	r3, [r2, #8]
 800049c:	eba3 030b 	sub.w	r3, r3, fp
 80004a0:	445d      	add	r5, fp
 80004a2:	eba6 060b 	sub.w	r6, r6, fp
 80004a6:	6093      	str	r3, [r2, #8]
 80004a8:	2b00      	cmp	r3, #0
 80004aa:	f43f af76 	beq.w	800039a <__sfvwrite_r+0x62>
 80004ae:	2e00      	cmp	r6, #0
 80004b0:	d1d4      	bne.n	800045c <__sfvwrite_r+0x124>
 80004b2:	f10a 0308 	add.w	r3, sl, #8
 80004b6:	e953 5602 	ldrd	r5, r6, [r3, #-8]
 80004ba:	469a      	mov	sl, r3
 80004bc:	3308      	adds	r3, #8
 80004be:	2e00      	cmp	r6, #0
 80004c0:	d0f9      	beq.n	80004b6 <__sfvwrite_r+0x17e>
 80004c2:	4632      	mov	r2, r6
 80004c4:	210a      	movs	r1, #10
 80004c6:	4628      	mov	r0, r5
 80004c8:	f000 fb6a 	bl	8000ba0 <memchr>
 80004cc:	2800      	cmp	r0, #0
 80004ce:	f000 809c 	beq.w	800060a <__sfvwrite_r+0x2d2>
 80004d2:	3001      	adds	r0, #1
 80004d4:	eba0 0905 	sub.w	r9, r0, r5
 80004d8:	e7c1      	b.n	800045e <__sfvwrite_r+0x126>
 80004da:	6820      	ldr	r0, [r4, #0]
 80004dc:	6923      	ldr	r3, [r4, #16]
 80004de:	4298      	cmp	r0, r3
 80004e0:	d816      	bhi.n	8000510 <__sfvwrite_r+0x1d8>
 80004e2:	6963      	ldr	r3, [r4, #20]
 80004e4:	42b3      	cmp	r3, r6
 80004e6:	d813      	bhi.n	8000510 <__sfvwrite_r+0x1d8>
 80004e8:	f06f 4200 	mvn.w	r2, #2147483648	; 0x80000000
 80004ec:	42b2      	cmp	r2, r6
 80004ee:	bf28      	it	cs
 80004f0:	4632      	movcs	r2, r6
 80004f2:	69e1      	ldr	r1, [r4, #28]
 80004f4:	fb92 f2f3 	sdiv	r2, r2, r3
 80004f8:	6a67      	ldr	r7, [r4, #36]	; 0x24
 80004fa:	fb02 f303 	mul.w	r3, r2, r3
 80004fe:	4640      	mov	r0, r8
 8000500:	464a      	mov	r2, r9
 8000502:	47b8      	blx	r7
 8000504:	f1b0 0a00 	subs.w	sl, r0, #0
 8000508:	dd95      	ble.n	8000436 <__sfvwrite_r+0xfe>
 800050a:	eba6 060a 	sub.w	r6, r6, sl
 800050e:	e778      	b.n	8000402 <__sfvwrite_r+0xca>
 8000510:	45b3      	cmp	fp, r6
 8000512:	46da      	mov	sl, fp
 8000514:	bf28      	it	cs
 8000516:	46b2      	movcs	sl, r6
 8000518:	4652      	mov	r2, sl
 800051a:	4649      	mov	r1, r9
 800051c:	f000 fc2a 	bl	8000d74 <memmove>
 8000520:	68a3      	ldr	r3, [r4, #8]
 8000522:	6822      	ldr	r2, [r4, #0]
 8000524:	eba3 030a 	sub.w	r3, r3, sl
 8000528:	4452      	add	r2, sl
 800052a:	60a3      	str	r3, [r4, #8]
 800052c:	6022      	str	r2, [r4, #0]
 800052e:	2b00      	cmp	r3, #0
 8000530:	d1eb      	bne.n	800050a <__sfvwrite_r+0x1d2>
 8000532:	4621      	mov	r1, r4
 8000534:	4640      	mov	r0, r8
 8000536:	f001 f813 	bl	8001560 <_fflush_r>
 800053a:	2800      	cmp	r0, #0
 800053c:	d0e5      	beq.n	800050a <__sfvwrite_r+0x1d2>
 800053e:	e77a      	b.n	8000436 <__sfvwrite_r+0xfe>
 8000540:	6820      	ldr	r0, [r4, #0]
 8000542:	46b3      	mov	fp, r6
 8000544:	4632      	mov	r2, r6
 8000546:	e74e      	b.n	80003e6 <__sfvwrite_r+0xae>
 8000548:	4629      	mov	r1, r5
 800054a:	9201      	str	r2, [sp, #4]
 800054c:	f000 fc12 	bl	8000d74 <memmove>
 8000550:	9a01      	ldr	r2, [sp, #4]
 8000552:	68a3      	ldr	r3, [r4, #8]
 8000554:	1a9b      	subs	r3, r3, r2
 8000556:	60a3      	str	r3, [r4, #8]
 8000558:	6823      	ldr	r3, [r4, #0]
 800055a:	4413      	add	r3, r2
 800055c:	6023      	str	r3, [r4, #0]
 800055e:	4693      	mov	fp, r2
 8000560:	e796      	b.n	8000490 <__sfvwrite_r+0x158>
 8000562:	6823      	ldr	r3, [r4, #0]
 8000564:	6921      	ldr	r1, [r4, #16]
 8000566:	eba3 0b01 	sub.w	fp, r3, r1
 800056a:	6963      	ldr	r3, [r4, #20]
 800056c:	eb03 0a43 	add.w	sl, r3, r3, lsl #1
 8000570:	eb0a 7ada 	add.w	sl, sl, sl, lsr #31
 8000574:	f10b 0301 	add.w	r3, fp, #1
 8000578:	ea4f 0a6a 	mov.w	sl, sl, asr #1
 800057c:	4433      	add	r3, r6
 800057e:	4553      	cmp	r3, sl
 8000580:	4652      	mov	r2, sl
 8000582:	bf84      	itt	hi
 8000584:	469a      	movhi	sl, r3
 8000586:	4652      	movhi	r2, sl
 8000588:	0543      	lsls	r3, r0, #21
 800058a:	d52c      	bpl.n	80005e6 <__sfvwrite_r+0x2ae>
 800058c:	4611      	mov	r1, r2
 800058e:	4640      	mov	r0, r8
 8000590:	f000 f852 	bl	8000638 <_malloc_r>
 8000594:	2800      	cmp	r0, #0
 8000596:	d03b      	beq.n	8000610 <__sfvwrite_r+0x2d8>
 8000598:	465a      	mov	r2, fp
 800059a:	6921      	ldr	r1, [r4, #16]
 800059c:	9001      	str	r0, [sp, #4]
 800059e:	f000 fb4f 	bl	8000c40 <memcpy>
 80005a2:	89a2      	ldrh	r2, [r4, #12]
 80005a4:	9b01      	ldr	r3, [sp, #4]
 80005a6:	f422 6290 	bic.w	r2, r2, #1152	; 0x480
 80005aa:	f042 0280 	orr.w	r2, r2, #128	; 0x80
 80005ae:	81a2      	strh	r2, [r4, #12]
 80005b0:	eb03 000b 	add.w	r0, r3, fp
 80005b4:	6123      	str	r3, [r4, #16]
 80005b6:	ebaa 030b 	sub.w	r3, sl, fp
 80005ba:	f8c4 a014 	str.w	sl, [r4, #20]
 80005be:	60a3      	str	r3, [r4, #8]
 80005c0:	6020      	str	r0, [r4, #0]
 80005c2:	46b3      	mov	fp, r6
 80005c4:	4632      	mov	r2, r6
 80005c6:	e70e      	b.n	80003e6 <__sfvwrite_r+0xae>
 80005c8:	4629      	mov	r1, r5
 80005ca:	465a      	mov	r2, fp
 80005cc:	f000 fbd2 	bl	8000d74 <memmove>
 80005d0:	6823      	ldr	r3, [r4, #0]
 80005d2:	445b      	add	r3, fp
 80005d4:	6023      	str	r3, [r4, #0]
 80005d6:	4621      	mov	r1, r4
 80005d8:	4640      	mov	r0, r8
 80005da:	f000 ffc1 	bl	8001560 <_fflush_r>
 80005de:	2800      	cmp	r0, #0
 80005e0:	f43f af56 	beq.w	8000490 <__sfvwrite_r+0x158>
 80005e4:	e727      	b.n	8000436 <__sfvwrite_r+0xfe>
 80005e6:	4640      	mov	r0, r8
 80005e8:	f000 fc4c 	bl	8000e84 <_realloc_r>
 80005ec:	4603      	mov	r3, r0
 80005ee:	2800      	cmp	r0, #0
 80005f0:	d1de      	bne.n	80005b0 <__sfvwrite_r+0x278>
 80005f2:	6921      	ldr	r1, [r4, #16]
 80005f4:	4640      	mov	r0, r8
 80005f6:	f001 f8c9 	bl	800178c <_free_r>
 80005fa:	f9b4 300c 	ldrsh.w	r3, [r4, #12]
 80005fe:	220c      	movs	r2, #12
 8000600:	f023 0380 	bic.w	r3, r3, #128	; 0x80
 8000604:	f8c8 2000 	str.w	r2, [r8]
 8000608:	e717      	b.n	800043a <__sfvwrite_r+0x102>
 800060a:	1c72      	adds	r2, r6, #1
 800060c:	4691      	mov	r9, r2
 800060e:	e727      	b.n	8000460 <__sfvwrite_r+0x128>
 8000610:	220c      	movs	r2, #12
 8000612:	f9b4 300c 	ldrsh.w	r3, [r4, #12]
 8000616:	f8c8 2000 	str.w	r2, [r8]
 800061a:	e70e      	b.n	800043a <__sfvwrite_r+0x102>
 800061c:	f04f 30ff 	mov.w	r0, #4294967295	; 0xffffffff
 8000620:	e6bc      	b.n	800039c <__sfvwrite_r+0x64>
 8000622:	bf00      	nop
 8000624:	7ffffc00 	.word	0x7ffffc00

08000628 <__retarget_lock_init_recursive>:
 8000628:	4770      	bx	lr
 800062a:	bf00      	nop

0800062c <__retarget_lock_close_recursive>:
 800062c:	4770      	bx	lr
 800062e:	bf00      	nop

08000630 <__retarget_lock_acquire_recursive>:
 8000630:	4770      	bx	lr
 8000632:	bf00      	nop

08000634 <__retarget_lock_release_recursive>:
 8000634:	4770      	bx	lr
 8000636:	bf00      	nop

08000638 <_malloc_r>:
 8000638:	e92d 4ff0 	stmdb	sp!, {r4, r5, r6, r7, r8, r9, sl, fp, lr}
 800063c:	f101 060b 	add.w	r6, r1, #11
 8000640:	2e16      	cmp	r6, #22
 8000642:	b083      	sub	sp, #12
 8000644:	4604      	mov	r4, r0
 8000646:	d824      	bhi.n	8000692 <_malloc_r+0x5a>
 8000648:	2910      	cmp	r1, #16
 800064a:	f200 80ba 	bhi.w	80007c2 <_malloc_r+0x18a>
 800064e:	f000 fc0d 	bl	8000e6c <__malloc_lock>
 8000652:	2610      	movs	r6, #16
 8000654:	2218      	movs	r2, #24
 8000656:	2002      	movs	r0, #2
 8000658:	4fb5      	ldr	r7, [pc, #724]	; (8000930 <_malloc_r+0x2f8>)
 800065a:	443a      	add	r2, r7
 800065c:	f1a2 0108 	sub.w	r1, r2, #8
 8000660:	6853      	ldr	r3, [r2, #4]
 8000662:	428b      	cmp	r3, r1
 8000664:	f000 80ba 	beq.w	80007dc <_malloc_r+0x1a4>
 8000668:	685a      	ldr	r2, [r3, #4]
 800066a:	68d9      	ldr	r1, [r3, #12]
 800066c:	f022 0203 	bic.w	r2, r2, #3
 8000670:	441a      	add	r2, r3
 8000672:	689d      	ldr	r5, [r3, #8]
 8000674:	60e9      	str	r1, [r5, #12]
 8000676:	608d      	str	r5, [r1, #8]
 8000678:	6851      	ldr	r1, [r2, #4]
 800067a:	f041 0101 	orr.w	r1, r1, #1
 800067e:	4620      	mov	r0, r4
 8000680:	6051      	str	r1, [r2, #4]
 8000682:	f103 0508 	add.w	r5, r3, #8
 8000686:	f000 fbf7 	bl	8000e78 <__malloc_unlock>
 800068a:	4628      	mov	r0, r5
 800068c:	b003      	add	sp, #12
 800068e:	e8bd 8ff0 	ldmia.w	sp!, {r4, r5, r6, r7, r8, r9, sl, fp, pc}
 8000692:	f036 0607 	bics.w	r6, r6, #7
 8000696:	f100 8094 	bmi.w	80007c2 <_malloc_r+0x18a>
 800069a:	42b1      	cmp	r1, r6
 800069c:	f200 8091 	bhi.w	80007c2 <_malloc_r+0x18a>
 80006a0:	f000 fbe4 	bl	8000e6c <__malloc_lock>
 80006a4:	f5b6 7ffc 	cmp.w	r6, #504	; 0x1f8
 80006a8:	f0c0 819a 	bcc.w	80009e0 <_malloc_r+0x3a8>
 80006ac:	0a73      	lsrs	r3, r6, #9
 80006ae:	f000 808f 	beq.w	80007d0 <_malloc_r+0x198>
 80006b2:	2b04      	cmp	r3, #4
 80006b4:	f200 816f 	bhi.w	8000996 <_malloc_r+0x35e>
 80006b8:	09b3      	lsrs	r3, r6, #6
 80006ba:	f103 0039 	add.w	r0, r3, #57	; 0x39
 80006be:	f103 0c38 	add.w	ip, r3, #56	; 0x38
 80006c2:	00c3      	lsls	r3, r0, #3
 80006c4:	4f9a      	ldr	r7, [pc, #616]	; (8000930 <_malloc_r+0x2f8>)
 80006c6:	443b      	add	r3, r7
 80006c8:	f1a3 0508 	sub.w	r5, r3, #8
 80006cc:	685b      	ldr	r3, [r3, #4]
 80006ce:	429d      	cmp	r5, r3
 80006d0:	d106      	bne.n	80006e0 <_malloc_r+0xa8>
 80006d2:	e00c      	b.n	80006ee <_malloc_r+0xb6>
 80006d4:	2900      	cmp	r1, #0
 80006d6:	f280 8127 	bge.w	8000928 <_malloc_r+0x2f0>
 80006da:	68db      	ldr	r3, [r3, #12]
 80006dc:	429d      	cmp	r5, r3
 80006de:	d006      	beq.n	80006ee <_malloc_r+0xb6>
 80006e0:	685a      	ldr	r2, [r3, #4]
 80006e2:	f022 0203 	bic.w	r2, r2, #3
 80006e6:	1b91      	subs	r1, r2, r6
 80006e8:	290f      	cmp	r1, #15
 80006ea:	ddf3      	ble.n	80006d4 <_malloc_r+0x9c>
 80006ec:	4660      	mov	r0, ip
 80006ee:	693d      	ldr	r5, [r7, #16]
 80006f0:	f8df c250 	ldr.w	ip, [pc, #592]	; 8000944 <_malloc_r+0x30c>
 80006f4:	4565      	cmp	r5, ip
 80006f6:	d07c      	beq.n	80007f2 <_malloc_r+0x1ba>
 80006f8:	686a      	ldr	r2, [r5, #4]
 80006fa:	f022 0203 	bic.w	r2, r2, #3
 80006fe:	1b93      	subs	r3, r2, r6
 8000700:	2b0f      	cmp	r3, #15
 8000702:	f300 817b 	bgt.w	80009fc <_malloc_r+0x3c4>
 8000706:	2b00      	cmp	r3, #0
 8000708:	e9c7 cc04 	strd	ip, ip, [r7, #16]
 800070c:	f280 816c 	bge.w	80009e8 <_malloc_r+0x3b0>
 8000710:	f5b2 7f00 	cmp.w	r2, #512	; 0x200
 8000714:	f080 811a 	bcs.w	800094c <_malloc_r+0x314>
 8000718:	08d3      	lsrs	r3, r2, #3
 800071a:	6879      	ldr	r1, [r7, #4]
 800071c:	3301      	adds	r3, #1
 800071e:	ea4f 1e52 	mov.w	lr, r2, lsr #5
 8000722:	2201      	movs	r2, #1
 8000724:	fa02 f20e 	lsl.w	r2, r2, lr
 8000728:	430a      	orrs	r2, r1
 800072a:	f857 e033 	ldr.w	lr, [r7, r3, lsl #3]
 800072e:	f8c5 e008 	str.w	lr, [r5, #8]
 8000732:	eb07 01c3 	add.w	r1, r7, r3, lsl #3
 8000736:	3908      	subs	r1, #8
 8000738:	60e9      	str	r1, [r5, #12]
 800073a:	607a      	str	r2, [r7, #4]
 800073c:	f847 5033 	str.w	r5, [r7, r3, lsl #3]
 8000740:	f8ce 500c 	str.w	r5, [lr, #12]
 8000744:	1083      	asrs	r3, r0, #2
 8000746:	2101      	movs	r1, #1
 8000748:	4099      	lsls	r1, r3
 800074a:	4291      	cmp	r1, r2
 800074c:	d857      	bhi.n	80007fe <_malloc_r+0x1c6>
 800074e:	4211      	tst	r1, r2
 8000750:	d106      	bne.n	8000760 <_malloc_r+0x128>
 8000752:	f020 0003 	bic.w	r0, r0, #3
 8000756:	0049      	lsls	r1, r1, #1
 8000758:	4211      	tst	r1, r2
 800075a:	f100 0004 	add.w	r0, r0, #4
 800075e:	d0fa      	beq.n	8000756 <_malloc_r+0x11e>
 8000760:	eb07 09c0 	add.w	r9, r7, r0, lsl #3
 8000764:	464d      	mov	r5, r9
 8000766:	4686      	mov	lr, r0
 8000768:	f8d5 800c 	ldr.w	r8, [r5, #12]
 800076c:	4545      	cmp	r5, r8
 800076e:	d108      	bne.n	8000782 <_malloc_r+0x14a>
 8000770:	e11d      	b.n	80009ae <_malloc_r+0x376>
 8000772:	2b00      	cmp	r3, #0
 8000774:	f280 8124 	bge.w	80009c0 <_malloc_r+0x388>
 8000778:	f8d8 800c 	ldr.w	r8, [r8, #12]
 800077c:	4545      	cmp	r5, r8
 800077e:	f000 8116 	beq.w	80009ae <_malloc_r+0x376>
 8000782:	f8d8 2004 	ldr.w	r2, [r8, #4]
 8000786:	f022 0203 	bic.w	r2, r2, #3
 800078a:	1b93      	subs	r3, r2, r6
 800078c:	2b0f      	cmp	r3, #15
 800078e:	ddf0      	ble.n	8000772 <_malloc_r+0x13a>
 8000790:	4620      	mov	r0, r4
 8000792:	e9d8 5402 	ldrd	r5, r4, [r8, #8]
 8000796:	eb08 0106 	add.w	r1, r8, r6
 800079a:	f046 0601 	orr.w	r6, r6, #1
 800079e:	f8c8 6004 	str.w	r6, [r8, #4]
 80007a2:	60ec      	str	r4, [r5, #12]
 80007a4:	60a5      	str	r5, [r4, #8]
 80007a6:	f043 0401 	orr.w	r4, r3, #1
 80007aa:	e9c7 1104 	strd	r1, r1, [r7, #16]
 80007ae:	e9c1 cc02 	strd	ip, ip, [r1, #8]
 80007b2:	604c      	str	r4, [r1, #4]
 80007b4:	f848 3002 	str.w	r3, [r8, r2]
 80007b8:	f000 fb5e 	bl	8000e78 <__malloc_unlock>
 80007bc:	f108 0508 	add.w	r5, r8, #8
 80007c0:	e002      	b.n	80007c8 <_malloc_r+0x190>
 80007c2:	230c      	movs	r3, #12
 80007c4:	6023      	str	r3, [r4, #0]
 80007c6:	2500      	movs	r5, #0
 80007c8:	4628      	mov	r0, r5
 80007ca:	b003      	add	sp, #12
 80007cc:	e8bd 8ff0 	ldmia.w	sp!, {r4, r5, r6, r7, r8, r9, sl, fp, pc}
 80007d0:	f44f 7300 	mov.w	r3, #512	; 0x200
 80007d4:	2040      	movs	r0, #64	; 0x40
 80007d6:	f04f 0c3f 	mov.w	ip, #63	; 0x3f
 80007da:	e773      	b.n	80006c4 <_malloc_r+0x8c>
 80007dc:	68d3      	ldr	r3, [r2, #12]
 80007de:	429a      	cmp	r2, r3
 80007e0:	bf08      	it	eq
 80007e2:	3002      	addeq	r0, #2
 80007e4:	f47f af40 	bne.w	8000668 <_malloc_r+0x30>
 80007e8:	693d      	ldr	r5, [r7, #16]
 80007ea:	f8df c158 	ldr.w	ip, [pc, #344]	; 8000944 <_malloc_r+0x30c>
 80007ee:	4565      	cmp	r5, ip
 80007f0:	d182      	bne.n	80006f8 <_malloc_r+0xc0>
 80007f2:	687a      	ldr	r2, [r7, #4]
 80007f4:	1083      	asrs	r3, r0, #2
 80007f6:	2101      	movs	r1, #1
 80007f8:	4099      	lsls	r1, r3
 80007fa:	4291      	cmp	r1, r2
 80007fc:	d9a7      	bls.n	800074e <_malloc_r+0x116>
 80007fe:	68bd      	ldr	r5, [r7, #8]
 8000800:	686b      	ldr	r3, [r5, #4]
 8000802:	f023 0903 	bic.w	r9, r3, #3
 8000806:	454e      	cmp	r6, r9
 8000808:	d803      	bhi.n	8000812 <_malloc_r+0x1da>
 800080a:	eba9 0306 	sub.w	r3, r9, r6
 800080e:	2b0f      	cmp	r3, #15
 8000810:	dc7a      	bgt.n	8000908 <_malloc_r+0x2d0>
 8000812:	f8df b134 	ldr.w	fp, [pc, #308]	; 8000948 <_malloc_r+0x310>
 8000816:	4b47      	ldr	r3, [pc, #284]	; (8000934 <_malloc_r+0x2fc>)
 8000818:	f8db 2000 	ldr.w	r2, [fp]
 800081c:	681b      	ldr	r3, [r3, #0]
 800081e:	3201      	adds	r2, #1
 8000820:	4433      	add	r3, r6
 8000822:	eb05 0a09 	add.w	sl, r5, r9
 8000826:	f000 8133 	beq.w	8000a90 <_malloc_r+0x458>
 800082a:	f503 5380 	add.w	r3, r3, #4096	; 0x1000
 800082e:	330f      	adds	r3, #15
 8000830:	f423 687f 	bic.w	r8, r3, #4080	; 0xff0
 8000834:	f028 080f 	bic.w	r8, r8, #15
 8000838:	4641      	mov	r1, r8
 800083a:	4620      	mov	r0, r4
 800083c:	f000 fd0e 	bl	800125c <_sbrk_r>
 8000840:	1c41      	adds	r1, r0, #1
 8000842:	4602      	mov	r2, r0
 8000844:	f000 80f3 	beq.w	8000a2e <_malloc_r+0x3f6>
 8000848:	4582      	cmp	sl, r0
 800084a:	f200 80ee 	bhi.w	8000a2a <_malloc_r+0x3f2>
 800084e:	4b3a      	ldr	r3, [pc, #232]	; (8000938 <_malloc_r+0x300>)
 8000850:	6819      	ldr	r1, [r3, #0]
 8000852:	4441      	add	r1, r8
 8000854:	6019      	str	r1, [r3, #0]
 8000856:	4608      	mov	r0, r1
 8000858:	f000 814e 	beq.w	8000af8 <_malloc_r+0x4c0>
 800085c:	f8db 1000 	ldr.w	r1, [fp]
 8000860:	9301      	str	r3, [sp, #4]
 8000862:	3101      	adds	r1, #1
 8000864:	bf1b      	ittet	ne
 8000866:	eba2 0a0a 	subne.w	sl, r2, sl
 800086a:	4450      	addne	r0, sl
 800086c:	f8cb 2000 	streq.w	r2, [fp]
 8000870:	6018      	strne	r0, [r3, #0]
 8000872:	f012 0b07 	ands.w	fp, r2, #7
 8000876:	f000 8117 	beq.w	8000aa8 <_malloc_r+0x470>
 800087a:	f1cb 0108 	rsb	r1, fp, #8
 800087e:	440a      	add	r2, r1
 8000880:	f5cb 5180 	rsb	r1, fp, #4096	; 0x1000
 8000884:	4490      	add	r8, r2
 8000886:	3108      	adds	r1, #8
 8000888:	eba1 0108 	sub.w	r1, r1, r8
 800088c:	f3c1 0a0b 	ubfx	sl, r1, #0, #12
 8000890:	4651      	mov	r1, sl
 8000892:	4620      	mov	r0, r4
 8000894:	9200      	str	r2, [sp, #0]
 8000896:	f000 fce1 	bl	800125c <_sbrk_r>
 800089a:	1c42      	adds	r2, r0, #1
 800089c:	e9dd 2300 	ldrd	r2, r3, [sp]
 80008a0:	f000 814f 	beq.w	8000b42 <_malloc_r+0x50a>
 80008a4:	1a80      	subs	r0, r0, r2
 80008a6:	eb00 080a 	add.w	r8, r0, sl
 80008aa:	6819      	ldr	r1, [r3, #0]
 80008ac:	60ba      	str	r2, [r7, #8]
 80008ae:	f048 0001 	orr.w	r0, r8, #1
 80008b2:	4451      	add	r1, sl
 80008b4:	42bd      	cmp	r5, r7
 80008b6:	6050      	str	r0, [r2, #4]
 80008b8:	6019      	str	r1, [r3, #0]
 80008ba:	f000 8129 	beq.w	8000b10 <_malloc_r+0x4d8>
 80008be:	f1b9 0f0f 	cmp.w	r9, #15
 80008c2:	f240 8127 	bls.w	8000b14 <_malloc_r+0x4dc>
 80008c6:	6868      	ldr	r0, [r5, #4]
 80008c8:	f1a9 0c0c 	sub.w	ip, r9, #12
 80008cc:	f02c 0c07 	bic.w	ip, ip, #7
 80008d0:	f000 0001 	and.w	r0, r0, #1
 80008d4:	ea40 000c 	orr.w	r0, r0, ip
 80008d8:	6068      	str	r0, [r5, #4]
 80008da:	f04f 0e05 	mov.w	lr, #5
 80008de:	eb05 000c 	add.w	r0, r5, ip
 80008e2:	f1bc 0f0f 	cmp.w	ip, #15
 80008e6:	e9c0 ee01 	strd	lr, lr, [r0, #4]
 80008ea:	f200 8132 	bhi.w	8000b52 <_malloc_r+0x51a>
 80008ee:	6850      	ldr	r0, [r2, #4]
 80008f0:	4615      	mov	r5, r2
 80008f2:	4b12      	ldr	r3, [pc, #72]	; (800093c <_malloc_r+0x304>)
 80008f4:	681a      	ldr	r2, [r3, #0]
 80008f6:	428a      	cmp	r2, r1
 80008f8:	bf38      	it	cc
 80008fa:	6019      	strcc	r1, [r3, #0]
 80008fc:	4b10      	ldr	r3, [pc, #64]	; (8000940 <_malloc_r+0x308>)
 80008fe:	681a      	ldr	r2, [r3, #0]
 8000900:	428a      	cmp	r2, r1
 8000902:	bf38      	it	cc
 8000904:	6019      	strcc	r1, [r3, #0]
 8000906:	e094      	b.n	8000a32 <_malloc_r+0x3fa>
 8000908:	19aa      	adds	r2, r5, r6
 800090a:	f043 0301 	orr.w	r3, r3, #1
 800090e:	f046 0601 	orr.w	r6, r6, #1
 8000912:	606e      	str	r6, [r5, #4]
 8000914:	4620      	mov	r0, r4
 8000916:	60ba      	str	r2, [r7, #8]
 8000918:	6053      	str	r3, [r2, #4]
 800091a:	f000 faad 	bl	8000e78 <__malloc_unlock>
 800091e:	3508      	adds	r5, #8
 8000920:	4628      	mov	r0, r5
 8000922:	b003      	add	sp, #12
 8000924:	e8bd 8ff0 	ldmia.w	sp!, {r4, r5, r6, r7, r8, r9, sl, fp, pc}
 8000928:	68d9      	ldr	r1, [r3, #12]
 800092a:	441a      	add	r2, r3
 800092c:	e6a1      	b.n	8000672 <_malloc_r+0x3a>
 800092e:	bf00      	nop
 8000930:	20000440 	.word	0x20000440
 8000934:	2000088c 	.word	0x2000088c
 8000938:	2000085c 	.word	0x2000085c
 800093c:	20000884 	.word	0x20000884
 8000940:	20000888 	.word	0x20000888
 8000944:	20000448 	.word	0x20000448
 8000948:	20000848 	.word	0x20000848
 800094c:	f5b2 6f20 	cmp.w	r2, #2560	; 0xa00
 8000950:	ea4f 2352 	mov.w	r3, r2, lsr #9
 8000954:	d363      	bcc.n	8000a1e <_malloc_r+0x3e6>
 8000956:	2b14      	cmp	r3, #20
 8000958:	f200 80b7 	bhi.w	8000aca <_malloc_r+0x492>
 800095c:	f103 015c 	add.w	r1, r3, #92	; 0x5c
 8000960:	00c9      	lsls	r1, r1, #3
 8000962:	335b      	adds	r3, #91	; 0x5b
 8000964:	eb07 0e01 	add.w	lr, r7, r1
 8000968:	5879      	ldr	r1, [r7, r1]
 800096a:	f1ae 0e08 	sub.w	lr, lr, #8
 800096e:	458e      	cmp	lr, r1
 8000970:	f000 8091 	beq.w	8000a96 <_malloc_r+0x45e>
 8000974:	684b      	ldr	r3, [r1, #4]
 8000976:	f023 0303 	bic.w	r3, r3, #3
 800097a:	4293      	cmp	r3, r2
 800097c:	d902      	bls.n	8000984 <_malloc_r+0x34c>
 800097e:	6889      	ldr	r1, [r1, #8]
 8000980:	458e      	cmp	lr, r1
 8000982:	d1f7      	bne.n	8000974 <_malloc_r+0x33c>
 8000984:	f8d1 e00c 	ldr.w	lr, [r1, #12]
 8000988:	687a      	ldr	r2, [r7, #4]
 800098a:	e9c5 1e02 	strd	r1, lr, [r5, #8]
 800098e:	f8ce 5008 	str.w	r5, [lr, #8]
 8000992:	60cd      	str	r5, [r1, #12]
 8000994:	e6d6      	b.n	8000744 <_malloc_r+0x10c>
 8000996:	2b14      	cmp	r3, #20
 8000998:	d959      	bls.n	8000a4e <_malloc_r+0x416>
 800099a:	2b54      	cmp	r3, #84	; 0x54
 800099c:	f200 809d 	bhi.w	8000ada <_malloc_r+0x4a2>
 80009a0:	0b33      	lsrs	r3, r6, #12
 80009a2:	f103 006f 	add.w	r0, r3, #111	; 0x6f
 80009a6:	f103 0c6e 	add.w	ip, r3, #110	; 0x6e
 80009aa:	00c3      	lsls	r3, r0, #3
 80009ac:	e68a      	b.n	80006c4 <_malloc_r+0x8c>
 80009ae:	f10e 0e01 	add.w	lr, lr, #1
 80009b2:	f01e 0f03 	tst.w	lr, #3
 80009b6:	f105 0508 	add.w	r5, r5, #8
 80009ba:	f47f aed5 	bne.w	8000768 <_malloc_r+0x130>
 80009be:	e051      	b.n	8000a64 <_malloc_r+0x42c>
 80009c0:	4442      	add	r2, r8
 80009c2:	4645      	mov	r5, r8
 80009c4:	6853      	ldr	r3, [r2, #4]
 80009c6:	f8d8 100c 	ldr.w	r1, [r8, #12]
 80009ca:	f043 0301 	orr.w	r3, r3, #1
 80009ce:	6053      	str	r3, [r2, #4]
 80009d0:	f855 3f08 	ldr.w	r3, [r5, #8]!
 80009d4:	4620      	mov	r0, r4
 80009d6:	60d9      	str	r1, [r3, #12]
 80009d8:	608b      	str	r3, [r1, #8]
 80009da:	f000 fa4d 	bl	8000e78 <__malloc_unlock>
 80009de:	e6f3      	b.n	80007c8 <_malloc_r+0x190>
 80009e0:	08f0      	lsrs	r0, r6, #3
 80009e2:	f106 0208 	add.w	r2, r6, #8
 80009e6:	e637      	b.n	8000658 <_malloc_r+0x20>
 80009e8:	442a      	add	r2, r5
 80009ea:	4620      	mov	r0, r4
 80009ec:	6853      	ldr	r3, [r2, #4]
 80009ee:	f043 0301 	orr.w	r3, r3, #1
 80009f2:	6053      	str	r3, [r2, #4]
 80009f4:	3508      	adds	r5, #8
 80009f6:	f000 fa3f 	bl	8000e78 <__malloc_unlock>
 80009fa:	e6e5      	b.n	80007c8 <_malloc_r+0x190>
 80009fc:	19a9      	adds	r1, r5, r6
 80009fe:	4620      	mov	r0, r4
 8000a00:	f046 0601 	orr.w	r6, r6, #1
 8000a04:	f043 0401 	orr.w	r4, r3, #1
 8000a08:	606e      	str	r6, [r5, #4]
 8000a0a:	e9c7 1104 	strd	r1, r1, [r7, #16]
 8000a0e:	e9c1 cc02 	strd	ip, ip, [r1, #8]
 8000a12:	604c      	str	r4, [r1, #4]
 8000a14:	50ab      	str	r3, [r5, r2]
 8000a16:	f000 fa2f 	bl	8000e78 <__malloc_unlock>
 8000a1a:	3508      	adds	r5, #8
 8000a1c:	e6d4      	b.n	80007c8 <_malloc_r+0x190>
 8000a1e:	0993      	lsrs	r3, r2, #6
 8000a20:	f103 0139 	add.w	r1, r3, #57	; 0x39
 8000a24:	00c9      	lsls	r1, r1, #3
 8000a26:	3338      	adds	r3, #56	; 0x38
 8000a28:	e79c      	b.n	8000964 <_malloc_r+0x32c>
 8000a2a:	42bd      	cmp	r5, r7
 8000a2c:	d05f      	beq.n	8000aee <_malloc_r+0x4b6>
 8000a2e:	68bd      	ldr	r5, [r7, #8]
 8000a30:	6868      	ldr	r0, [r5, #4]
 8000a32:	f020 0803 	bic.w	r8, r0, #3
 8000a36:	4546      	cmp	r6, r8
 8000a38:	eba8 0306 	sub.w	r3, r8, r6
 8000a3c:	d802      	bhi.n	8000a44 <_malloc_r+0x40c>
 8000a3e:	2b0f      	cmp	r3, #15
 8000a40:	f73f af62 	bgt.w	8000908 <_malloc_r+0x2d0>
 8000a44:	4620      	mov	r0, r4
 8000a46:	f000 fa17 	bl	8000e78 <__malloc_unlock>
 8000a4a:	2500      	movs	r5, #0
 8000a4c:	e6bc      	b.n	80007c8 <_malloc_r+0x190>
 8000a4e:	f103 005c 	add.w	r0, r3, #92	; 0x5c
 8000a52:	f103 0c5b 	add.w	ip, r3, #91	; 0x5b
 8000a56:	00c3      	lsls	r3, r0, #3
 8000a58:	e634      	b.n	80006c4 <_malloc_r+0x8c>
 8000a5a:	f859 3908 	ldr.w	r3, [r9], #-8
 8000a5e:	454b      	cmp	r3, r9
 8000a60:	f040 8096 	bne.w	8000b90 <_malloc_r+0x558>
 8000a64:	f010 0f03 	tst.w	r0, #3
 8000a68:	f100 30ff 	add.w	r0, r0, #4294967295	; 0xffffffff
 8000a6c:	d1f5      	bne.n	8000a5a <_malloc_r+0x422>
 8000a6e:	687b      	ldr	r3, [r7, #4]
 8000a70:	ea23 0301 	bic.w	r3, r3, r1
 8000a74:	607b      	str	r3, [r7, #4]
 8000a76:	0049      	lsls	r1, r1, #1
 8000a78:	4299      	cmp	r1, r3
 8000a7a:	f63f aec0 	bhi.w	80007fe <_malloc_r+0x1c6>
 8000a7e:	b919      	cbnz	r1, 8000a88 <_malloc_r+0x450>
 8000a80:	e6bd      	b.n	80007fe <_malloc_r+0x1c6>
 8000a82:	0049      	lsls	r1, r1, #1
 8000a84:	f10e 0e04 	add.w	lr, lr, #4
 8000a88:	4219      	tst	r1, r3
 8000a8a:	d0fa      	beq.n	8000a82 <_malloc_r+0x44a>
 8000a8c:	4670      	mov	r0, lr
 8000a8e:	e667      	b.n	8000760 <_malloc_r+0x128>
 8000a90:	f103 0810 	add.w	r8, r3, #16
 8000a94:	e6d0      	b.n	8000838 <_malloc_r+0x200>
 8000a96:	109a      	asrs	r2, r3, #2
 8000a98:	f04f 0801 	mov.w	r8, #1
 8000a9c:	687b      	ldr	r3, [r7, #4]
 8000a9e:	fa08 f202 	lsl.w	r2, r8, r2
 8000aa2:	431a      	orrs	r2, r3
 8000aa4:	607a      	str	r2, [r7, #4]
 8000aa6:	e770      	b.n	800098a <_malloc_r+0x352>
 8000aa8:	eb02 0108 	add.w	r1, r2, r8
 8000aac:	4249      	negs	r1, r1
 8000aae:	f3c1 0a0b 	ubfx	sl, r1, #0, #12
 8000ab2:	4651      	mov	r1, sl
 8000ab4:	4620      	mov	r0, r4
 8000ab6:	9200      	str	r2, [sp, #0]
 8000ab8:	f000 fbd0 	bl	800125c <_sbrk_r>
 8000abc:	1c43      	adds	r3, r0, #1
 8000abe:	e9dd 2300 	ldrd	r2, r3, [sp]
 8000ac2:	f47f aeef 	bne.w	80008a4 <_malloc_r+0x26c>
 8000ac6:	46da      	mov	sl, fp
 8000ac8:	e6ef      	b.n	80008aa <_malloc_r+0x272>
 8000aca:	2b54      	cmp	r3, #84	; 0x54
 8000acc:	d825      	bhi.n	8000b1a <_malloc_r+0x4e2>
 8000ace:	0b13      	lsrs	r3, r2, #12
 8000ad0:	f103 016f 	add.w	r1, r3, #111	; 0x6f
 8000ad4:	00c9      	lsls	r1, r1, #3
 8000ad6:	336e      	adds	r3, #110	; 0x6e
 8000ad8:	e744      	b.n	8000964 <_malloc_r+0x32c>
 8000ada:	f5b3 7faa 	cmp.w	r3, #340	; 0x154
 8000ade:	d825      	bhi.n	8000b2c <_malloc_r+0x4f4>
 8000ae0:	0bf3      	lsrs	r3, r6, #15
 8000ae2:	f103 0078 	add.w	r0, r3, #120	; 0x78
 8000ae6:	f103 0c77 	add.w	ip, r3, #119	; 0x77
 8000aea:	00c3      	lsls	r3, r0, #3
 8000aec:	e5ea      	b.n	80006c4 <_malloc_r+0x8c>
 8000aee:	4b29      	ldr	r3, [pc, #164]	; (8000b94 <_malloc_r+0x55c>)
 8000af0:	6818      	ldr	r0, [r3, #0]
 8000af2:	4440      	add	r0, r8
 8000af4:	6018      	str	r0, [r3, #0]
 8000af6:	e6b1      	b.n	800085c <_malloc_r+0x224>
 8000af8:	f3ca 0c0b 	ubfx	ip, sl, #0, #12
 8000afc:	f1bc 0f00 	cmp.w	ip, #0
 8000b00:	f47f aeac 	bne.w	800085c <_malloc_r+0x224>
 8000b04:	68bd      	ldr	r5, [r7, #8]
 8000b06:	44c8      	add	r8, r9
 8000b08:	f048 0001 	orr.w	r0, r8, #1
 8000b0c:	6068      	str	r0, [r5, #4]
 8000b0e:	e6f0      	b.n	80008f2 <_malloc_r+0x2ba>
 8000b10:	4615      	mov	r5, r2
 8000b12:	e6ee      	b.n	80008f2 <_malloc_r+0x2ba>
 8000b14:	2301      	movs	r3, #1
 8000b16:	6053      	str	r3, [r2, #4]
 8000b18:	e794      	b.n	8000a44 <_malloc_r+0x40c>
 8000b1a:	f5b3 7faa 	cmp.w	r3, #340	; 0x154
 8000b1e:	d823      	bhi.n	8000b68 <_malloc_r+0x530>
 8000b20:	0bd3      	lsrs	r3, r2, #15
 8000b22:	f103 0178 	add.w	r1, r3, #120	; 0x78
 8000b26:	00c9      	lsls	r1, r1, #3
 8000b28:	3377      	adds	r3, #119	; 0x77
 8000b2a:	e71b      	b.n	8000964 <_malloc_r+0x32c>
 8000b2c:	f240 5254 	movw	r2, #1364	; 0x554
 8000b30:	4293      	cmp	r3, r2
 8000b32:	d823      	bhi.n	8000b7c <_malloc_r+0x544>
 8000b34:	0cb3      	lsrs	r3, r6, #18
 8000b36:	f103 007d 	add.w	r0, r3, #125	; 0x7d
 8000b3a:	f103 0c7c 	add.w	ip, r3, #124	; 0x7c
 8000b3e:	00c3      	lsls	r3, r0, #3
 8000b40:	e5c0      	b.n	80006c4 <_malloc_r+0x8c>
 8000b42:	f1ab 0b08 	sub.w	fp, fp, #8
 8000b46:	44d8      	add	r8, fp
 8000b48:	eba8 0802 	sub.w	r8, r8, r2
 8000b4c:	f04f 0a00 	mov.w	sl, #0
 8000b50:	e6ab      	b.n	80008aa <_malloc_r+0x272>
 8000b52:	f105 0108 	add.w	r1, r5, #8
 8000b56:	4620      	mov	r0, r4
 8000b58:	9300      	str	r3, [sp, #0]
 8000b5a:	f000 fe17 	bl	800178c <_free_r>
 8000b5e:	68bd      	ldr	r5, [r7, #8]
 8000b60:	9b00      	ldr	r3, [sp, #0]
 8000b62:	6868      	ldr	r0, [r5, #4]
 8000b64:	6819      	ldr	r1, [r3, #0]
 8000b66:	e6c4      	b.n	80008f2 <_malloc_r+0x2ba>
 8000b68:	f240 5154 	movw	r1, #1364	; 0x554
 8000b6c:	428b      	cmp	r3, r1
 8000b6e:	d80b      	bhi.n	8000b88 <_malloc_r+0x550>
 8000b70:	0c93      	lsrs	r3, r2, #18
 8000b72:	f103 017d 	add.w	r1, r3, #125	; 0x7d
 8000b76:	00c9      	lsls	r1, r1, #3
 8000b78:	337c      	adds	r3, #124	; 0x7c
 8000b7a:	e6f3      	b.n	8000964 <_malloc_r+0x32c>
 8000b7c:	f44f 737e 	mov.w	r3, #1016	; 0x3f8
 8000b80:	207f      	movs	r0, #127	; 0x7f
 8000b82:	f04f 0c7e 	mov.w	ip, #126	; 0x7e
 8000b86:	e59d      	b.n	80006c4 <_malloc_r+0x8c>
 8000b88:	f44f 717e 	mov.w	r1, #1016	; 0x3f8
 8000b8c:	237e      	movs	r3, #126	; 0x7e
 8000b8e:	e6e9      	b.n	8000964 <_malloc_r+0x32c>
 8000b90:	687b      	ldr	r3, [r7, #4]
 8000b92:	e770      	b.n	8000a76 <_malloc_r+0x43e>
 8000b94:	2000085c 	.word	0x2000085c
	...

08000ba0 <memchr>:
 8000ba0:	f001 01ff 	and.w	r1, r1, #255	; 0xff
 8000ba4:	2a10      	cmp	r2, #16
 8000ba6:	db2b      	blt.n	8000c00 <memchr+0x60>
 8000ba8:	f010 0f07 	tst.w	r0, #7
 8000bac:	d008      	beq.n	8000bc0 <memchr+0x20>
 8000bae:	f810 3b01 	ldrb.w	r3, [r0], #1
 8000bb2:	3a01      	subs	r2, #1
 8000bb4:	428b      	cmp	r3, r1
 8000bb6:	d02d      	beq.n	8000c14 <memchr+0x74>
 8000bb8:	f010 0f07 	tst.w	r0, #7
 8000bbc:	b342      	cbz	r2, 8000c10 <memchr+0x70>
 8000bbe:	d1f6      	bne.n	8000bae <memchr+0xe>
 8000bc0:	b4f0      	push	{r4, r5, r6, r7}
 8000bc2:	ea41 2101 	orr.w	r1, r1, r1, lsl #8
 8000bc6:	ea41 4101 	orr.w	r1, r1, r1, lsl #16
 8000bca:	f022 0407 	bic.w	r4, r2, #7
 8000bce:	f07f 0700 	mvns.w	r7, #0
 8000bd2:	2300      	movs	r3, #0
 8000bd4:	e8f0 5602 	ldrd	r5, r6, [r0], #8
 8000bd8:	3c08      	subs	r4, #8
 8000bda:	ea85 0501 	eor.w	r5, r5, r1
 8000bde:	ea86 0601 	eor.w	r6, r6, r1
 8000be2:	fa85 f547 	uadd8	r5, r5, r7
 8000be6:	faa3 f587 	sel	r5, r3, r7
 8000bea:	fa86 f647 	uadd8	r6, r6, r7
 8000bee:	faa5 f687 	sel	r6, r5, r7
 8000bf2:	b98e      	cbnz	r6, 8000c18 <memchr+0x78>
 8000bf4:	d1ee      	bne.n	8000bd4 <memchr+0x34>
 8000bf6:	bcf0      	pop	{r4, r5, r6, r7}
 8000bf8:	f001 01ff 	and.w	r1, r1, #255	; 0xff
 8000bfc:	f002 0207 	and.w	r2, r2, #7
 8000c00:	b132      	cbz	r2, 8000c10 <memchr+0x70>
 8000c02:	f810 3b01 	ldrb.w	r3, [r0], #1
 8000c06:	3a01      	subs	r2, #1
 8000c08:	ea83 0301 	eor.w	r3, r3, r1
 8000c0c:	b113      	cbz	r3, 8000c14 <memchr+0x74>
 8000c0e:	d1f8      	bne.n	8000c02 <memchr+0x62>
 8000c10:	2000      	movs	r0, #0
 8000c12:	4770      	bx	lr
 8000c14:	3801      	subs	r0, #1
 8000c16:	4770      	bx	lr
 8000c18:	2d00      	cmp	r5, #0
 8000c1a:	bf06      	itte	eq
 8000c1c:	4635      	moveq	r5, r6
 8000c1e:	3803      	subeq	r0, #3
 8000c20:	3807      	subne	r0, #7
 8000c22:	f015 0f01 	tst.w	r5, #1
 8000c26:	d107      	bne.n	8000c38 <memchr+0x98>
 8000c28:	3001      	adds	r0, #1
 8000c2a:	f415 7f80 	tst.w	r5, #256	; 0x100
 8000c2e:	bf02      	ittt	eq
 8000c30:	3001      	addeq	r0, #1
 8000c32:	f415 3fc0 	tsteq.w	r5, #98304	; 0x18000
 8000c36:	3001      	addeq	r0, #1
 8000c38:	bcf0      	pop	{r4, r5, r6, r7}
 8000c3a:	3801      	subs	r0, #1
 8000c3c:	4770      	bx	lr
 8000c3e:	bf00      	nop

08000c40 <memcpy>:
 8000c40:	4684      	mov	ip, r0
 8000c42:	ea41 0300 	orr.w	r3, r1, r0
 8000c46:	f013 0303 	ands.w	r3, r3, #3
 8000c4a:	d16d      	bne.n	8000d28 <memcpy+0xe8>
 8000c4c:	3a40      	subs	r2, #64	; 0x40
 8000c4e:	d341      	bcc.n	8000cd4 <memcpy+0x94>
 8000c50:	f851 3b04 	ldr.w	r3, [r1], #4
 8000c54:	f840 3b04 	str.w	r3, [r0], #4
 8000c58:	f851 3b04 	ldr.w	r3, [r1], #4
 8000c5c:	f840 3b04 	str.w	r3, [r0], #4
 8000c60:	f851 3b04 	ldr.w	r3, [r1], #4
 8000c64:	f840 3b04 	str.w	r3, [r0], #4
 8000c68:	f851 3b04 	ldr.w	r3, [r1], #4
 8000c6c:	f840 3b04 	str.w	r3, [r0], #4
 8000c70:	f851 3b04 	ldr.w	r3, [r1], #4
 8000c74:	f840 3b04 	str.w	r3, [r0], #4
 8000c78:	f851 3b04 	ldr.w	r3, [r1], #4
 8000c7c:	f840 3b04 	str.w	r3, [r0], #4
 8000c80:	f851 3b04 	ldr.w	r3, [r1], #4
 8000c84:	f840 3b04 	str.w	r3, [r0], #4
 8000c88:	f851 3b04 	ldr.w	r3, [r1], #4
 8000c8c:	f840 3b04 	str.w	r3, [r0], #4
 8000c90:	f851 3b04 	ldr.w	r3, [r1], #4
 8000c94:	f840 3b04 	str.w	r3, [r0], #4
 8000c98:	f851 3b04 	ldr.w	r3, [r1], #4
 8000c9c:	f840 3b04 	str.w	r3, [r0], #4
 8000ca0:	f851 3b04 	ldr.w	r3, [r1], #4
 8000ca4:	f840 3b04 	str.w	r3, [r0], #4
 8000ca8:	f851 3b04 	ldr.w	r3, [r1], #4
 8000cac:	f840 3b04 	str.w	r3, [r0], #4
 8000cb0:	f851 3b04 	ldr.w	r3, [r1], #4
 8000cb4:	f840 3b04 	str.w	r3, [r0], #4
 8000cb8:	f851 3b04 	ldr.w	r3, [r1], #4
 8000cbc:	f840 3b04 	str.w	r3, [r0], #4
 8000cc0:	f851 3b04 	ldr.w	r3, [r1], #4
 8000cc4:	f840 3b04 	str.w	r3, [r0], #4
 8000cc8:	f851 3b04 	ldr.w	r3, [r1], #4
 8000ccc:	f840 3b04 	str.w	r3, [r0], #4
 8000cd0:	3a40      	subs	r2, #64	; 0x40
 8000cd2:	d2bd      	bcs.n	8000c50 <memcpy+0x10>
 8000cd4:	3230      	adds	r2, #48	; 0x30
 8000cd6:	d311      	bcc.n	8000cfc <memcpy+0xbc>
 8000cd8:	f851 3b04 	ldr.w	r3, [r1], #4
 8000cdc:	f840 3b04 	str.w	r3, [r0], #4
 8000ce0:	f851 3b04 	ldr.w	r3, [r1], #4
 8000ce4:	f840 3b04 	str.w	r3, [r0], #4
 8000ce8:	f851 3b04 	ldr.w	r3, [r1], #4
 8000cec:	f840 3b04 	str.w	r3, [r0], #4
 8000cf0:	f851 3b04 	ldr.w	r3, [r1], #4
 8000cf4:	f840 3b04 	str.w	r3, [r0], #4
 8000cf8:	3a10      	subs	r2, #16
 8000cfa:	d2ed      	bcs.n	8000cd8 <memcpy+0x98>
 8000cfc:	320c      	adds	r2, #12
 8000cfe:	d305      	bcc.n	8000d0c <memcpy+0xcc>
 8000d00:	f851 3b04 	ldr.w	r3, [r1], #4
 8000d04:	f840 3b04 	str.w	r3, [r0], #4
 8000d08:	3a04      	subs	r2, #4
 8000d0a:	d2f9      	bcs.n	8000d00 <memcpy+0xc0>
 8000d0c:	3204      	adds	r2, #4
 8000d0e:	d008      	beq.n	8000d22 <memcpy+0xe2>
 8000d10:	07d2      	lsls	r2, r2, #31
 8000d12:	bf1c      	itt	ne
 8000d14:	f811 3b01 	ldrbne.w	r3, [r1], #1
 8000d18:	f800 3b01 	strbne.w	r3, [r0], #1
 8000d1c:	d301      	bcc.n	8000d22 <memcpy+0xe2>
 8000d1e:	880b      	ldrh	r3, [r1, #0]
 8000d20:	8003      	strh	r3, [r0, #0]
 8000d22:	4660      	mov	r0, ip
 8000d24:	4770      	bx	lr
 8000d26:	bf00      	nop
 8000d28:	2a08      	cmp	r2, #8
 8000d2a:	d313      	bcc.n	8000d54 <memcpy+0x114>
 8000d2c:	078b      	lsls	r3, r1, #30
 8000d2e:	d08d      	beq.n	8000c4c <memcpy+0xc>
 8000d30:	f010 0303 	ands.w	r3, r0, #3
 8000d34:	d08a      	beq.n	8000c4c <memcpy+0xc>
 8000d36:	f1c3 0304 	rsb	r3, r3, #4
 8000d3a:	1ad2      	subs	r2, r2, r3
 8000d3c:	07db      	lsls	r3, r3, #31
 8000d3e:	bf1c      	itt	ne
 8000d40:	f811 3b01 	ldrbne.w	r3, [r1], #1
 8000d44:	f800 3b01 	strbne.w	r3, [r0], #1
 8000d48:	d380      	bcc.n	8000c4c <memcpy+0xc>
 8000d4a:	f831 3b02 	ldrh.w	r3, [r1], #2
 8000d4e:	f820 3b02 	strh.w	r3, [r0], #2
 8000d52:	e77b      	b.n	8000c4c <memcpy+0xc>
 8000d54:	3a04      	subs	r2, #4
 8000d56:	d3d9      	bcc.n	8000d0c <memcpy+0xcc>
 8000d58:	3a01      	subs	r2, #1
 8000d5a:	f811 3b01 	ldrb.w	r3, [r1], #1
 8000d5e:	f800 3b01 	strb.w	r3, [r0], #1
 8000d62:	d2f9      	bcs.n	8000d58 <memcpy+0x118>
 8000d64:	780b      	ldrb	r3, [r1, #0]
 8000d66:	7003      	strb	r3, [r0, #0]
 8000d68:	784b      	ldrb	r3, [r1, #1]
 8000d6a:	7043      	strb	r3, [r0, #1]
 8000d6c:	788b      	ldrb	r3, [r1, #2]
 8000d6e:	7083      	strb	r3, [r0, #2]
 8000d70:	4660      	mov	r0, ip
 8000d72:	4770      	bx	lr

08000d74 <memmove>:
 8000d74:	4288      	cmp	r0, r1
 8000d76:	d90d      	bls.n	8000d94 <memmove+0x20>
 8000d78:	188b      	adds	r3, r1, r2
 8000d7a:	4283      	cmp	r3, r0
 8000d7c:	d90a      	bls.n	8000d94 <memmove+0x20>
 8000d7e:	eb00 0c02 	add.w	ip, r0, r2
 8000d82:	b1ba      	cbz	r2, 8000db4 <memmove+0x40>
 8000d84:	4662      	mov	r2, ip
 8000d86:	f813 cd01 	ldrb.w	ip, [r3, #-1]!
 8000d8a:	f802 cd01 	strb.w	ip, [r2, #-1]!
 8000d8e:	4299      	cmp	r1, r3
 8000d90:	d1f9      	bne.n	8000d86 <memmove+0x12>
 8000d92:	4770      	bx	lr
 8000d94:	2a0f      	cmp	r2, #15
 8000d96:	d80e      	bhi.n	8000db6 <memmove+0x42>
 8000d98:	4603      	mov	r3, r0
 8000d9a:	f102 3cff 	add.w	ip, r2, #4294967295	; 0xffffffff
 8000d9e:	b14a      	cbz	r2, 8000db4 <memmove+0x40>
 8000da0:	f10c 0c01 	add.w	ip, ip, #1
 8000da4:	3b01      	subs	r3, #1
 8000da6:	448c      	add	ip, r1
 8000da8:	f811 2b01 	ldrb.w	r2, [r1], #1
 8000dac:	f803 2f01 	strb.w	r2, [r3, #1]!
 8000db0:	4561      	cmp	r1, ip
 8000db2:	d1f9      	bne.n	8000da8 <memmove+0x34>
 8000db4:	4770      	bx	lr
 8000db6:	ea40 0301 	orr.w	r3, r0, r1
 8000dba:	079b      	lsls	r3, r3, #30
 8000dbc:	d150      	bne.n	8000e60 <memmove+0xec>
 8000dbe:	f1a2 0310 	sub.w	r3, r2, #16
 8000dc2:	b570      	push	{r4, r5, r6, lr}
 8000dc4:	f101 0c20 	add.w	ip, r1, #32
 8000dc8:	f023 050f 	bic.w	r5, r3, #15
 8000dcc:	f101 0e10 	add.w	lr, r1, #16
 8000dd0:	f100 0410 	add.w	r4, r0, #16
 8000dd4:	44ac      	add	ip, r5
 8000dd6:	091b      	lsrs	r3, r3, #4
 8000dd8:	f85e 5c10 	ldr.w	r5, [lr, #-16]
 8000ddc:	f844 5c10 	str.w	r5, [r4, #-16]
 8000de0:	f85e 5c0c 	ldr.w	r5, [lr, #-12]
 8000de4:	f844 5c0c 	str.w	r5, [r4, #-12]
 8000de8:	f85e 5c08 	ldr.w	r5, [lr, #-8]
 8000dec:	f844 5c08 	str.w	r5, [r4, #-8]
 8000df0:	f85e 5c04 	ldr.w	r5, [lr, #-4]
 8000df4:	f844 5c04 	str.w	r5, [r4, #-4]
 8000df8:	f10e 0e10 	add.w	lr, lr, #16
 8000dfc:	45e6      	cmp	lr, ip
 8000dfe:	f104 0410 	add.w	r4, r4, #16
 8000e02:	d1e9      	bne.n	8000dd8 <memmove+0x64>
 8000e04:	3301      	adds	r3, #1
 8000e06:	f012 0f0c 	tst.w	r2, #12
 8000e0a:	eb01 1103 	add.w	r1, r1, r3, lsl #4
 8000e0e:	f002 040f 	and.w	r4, r2, #15
 8000e12:	eb00 1303 	add.w	r3, r0, r3, lsl #4
 8000e16:	d027      	beq.n	8000e68 <memmove+0xf4>
 8000e18:	3c04      	subs	r4, #4
 8000e1a:	f024 0603 	bic.w	r6, r4, #3
 8000e1e:	ea4f 0c94 	mov.w	ip, r4, lsr #2
 8000e22:	441e      	add	r6, r3
 8000e24:	1f1c      	subs	r4, r3, #4
 8000e26:	468e      	mov	lr, r1
 8000e28:	f85e 5b04 	ldr.w	r5, [lr], #4
 8000e2c:	f844 5f04 	str.w	r5, [r4, #4]!
 8000e30:	42b4      	cmp	r4, r6
 8000e32:	d1f9      	bne.n	8000e28 <memmove+0xb4>
 8000e34:	f10c 0401 	add.w	r4, ip, #1
 8000e38:	f002 0203 	and.w	r2, r2, #3
 8000e3c:	eb03 0384 	add.w	r3, r3, r4, lsl #2
 8000e40:	eb01 0184 	add.w	r1, r1, r4, lsl #2
 8000e44:	f102 3cff 	add.w	ip, r2, #4294967295	; 0xffffffff
 8000e48:	b14a      	cbz	r2, 8000e5e <memmove+0xea>
 8000e4a:	f10c 0c01 	add.w	ip, ip, #1
 8000e4e:	3b01      	subs	r3, #1
 8000e50:	448c      	add	ip, r1
 8000e52:	f811 2b01 	ldrb.w	r2, [r1], #1
 8000e56:	f803 2f01 	strb.w	r2, [r3, #1]!
 8000e5a:	4561      	cmp	r1, ip
 8000e5c:	d1f9      	bne.n	8000e52 <memmove+0xde>
 8000e5e:	bd70      	pop	{r4, r5, r6, pc}
 8000e60:	f102 3cff 	add.w	ip, r2, #4294967295	; 0xffffffff
 8000e64:	4603      	mov	r3, r0
 8000e66:	e79b      	b.n	8000da0 <memmove+0x2c>
 8000e68:	4622      	mov	r2, r4
 8000e6a:	e7eb      	b.n	8000e44 <memmove+0xd0>

08000e6c <__malloc_lock>:
 8000e6c:	4801      	ldr	r0, [pc, #4]	; (8000e74 <__malloc_lock+0x8>)
 8000e6e:	f7ff bbdf 	b.w	8000630 <__retarget_lock_acquire_recursive>
 8000e72:	bf00      	nop
 8000e74:	20000850 	.word	0x20000850

08000e78 <__malloc_unlock>:
 8000e78:	4801      	ldr	r0, [pc, #4]	; (8000e80 <__malloc_unlock+0x8>)
 8000e7a:	f7ff bbdb 	b.w	8000634 <__retarget_lock_release_recursive>
 8000e7e:	bf00      	nop
 8000e80:	20000850 	.word	0x20000850

08000e84 <_realloc_r>:
 8000e84:	e92d 4ff8 	stmdb	sp!, {r3, r4, r5, r6, r7, r8, r9, sl, fp, lr}
 8000e88:	4617      	mov	r7, r2
 8000e8a:	2900      	cmp	r1, #0
 8000e8c:	f000 8098 	beq.w	8000fc0 <_realloc_r+0x13c>
 8000e90:	f107 050b 	add.w	r5, r7, #11
 8000e94:	4680      	mov	r8, r0
 8000e96:	460c      	mov	r4, r1
 8000e98:	f7ff ffe8 	bl	8000e6c <__malloc_lock>
 8000e9c:	2d16      	cmp	r5, #22
 8000e9e:	d85d      	bhi.n	8000f5c <_realloc_r+0xd8>
 8000ea0:	2510      	movs	r5, #16
 8000ea2:	462a      	mov	r2, r5
 8000ea4:	42af      	cmp	r7, r5
 8000ea6:	d85e      	bhi.n	8000f66 <_realloc_r+0xe2>
 8000ea8:	f854 1c04 	ldr.w	r1, [r4, #-4]
 8000eac:	f021 0603 	bic.w	r6, r1, #3
 8000eb0:	4296      	cmp	r6, r2
 8000eb2:	f1a4 0908 	sub.w	r9, r4, #8
 8000eb6:	da62      	bge.n	8000f7e <_realloc_r+0xfa>
 8000eb8:	4bbc      	ldr	r3, [pc, #752]	; (80011ac <_realloc_r+0x328>)
 8000eba:	f8d3 c008 	ldr.w	ip, [r3, #8]
 8000ebe:	eb09 0006 	add.w	r0, r9, r6
 8000ec2:	4584      	cmp	ip, r0
 8000ec4:	f000 8097 	beq.w	8000ff6 <_realloc_r+0x172>
 8000ec8:	f8d0 c004 	ldr.w	ip, [r0, #4]
 8000ecc:	f02c 0301 	bic.w	r3, ip, #1
 8000ed0:	4403      	add	r3, r0
 8000ed2:	685b      	ldr	r3, [r3, #4]
 8000ed4:	07db      	lsls	r3, r3, #31
 8000ed6:	d468      	bmi.n	8000faa <_realloc_r+0x126>
 8000ed8:	f02c 0c03 	bic.w	ip, ip, #3
 8000edc:	eb06 030c 	add.w	r3, r6, ip
 8000ee0:	4293      	cmp	r3, r2
 8000ee2:	da47      	bge.n	8000f74 <_realloc_r+0xf0>
 8000ee4:	07cb      	lsls	r3, r1, #31
 8000ee6:	d410      	bmi.n	8000f0a <_realloc_r+0x86>
 8000ee8:	f854 3c08 	ldr.w	r3, [r4, #-8]
 8000eec:	eba9 0a03 	sub.w	sl, r9, r3
 8000ef0:	f8da 3004 	ldr.w	r3, [sl, #4]
 8000ef4:	f023 0103 	bic.w	r1, r3, #3
 8000ef8:	448c      	add	ip, r1
 8000efa:	44b4      	add	ip, r6
 8000efc:	4594      	cmp	ip, r2
 8000efe:	f280 8111 	bge.w	8001124 <_realloc_r+0x2a0>
 8000f02:	1873      	adds	r3, r6, r1
 8000f04:	4293      	cmp	r3, r2
 8000f06:	f280 80e8 	bge.w	80010da <_realloc_r+0x256>
 8000f0a:	4639      	mov	r1, r7
 8000f0c:	4640      	mov	r0, r8
 8000f0e:	f7ff fb93 	bl	8000638 <_malloc_r>
 8000f12:	4607      	mov	r7, r0
 8000f14:	b1e0      	cbz	r0, 8000f50 <_realloc_r+0xcc>
 8000f16:	f854 3c04 	ldr.w	r3, [r4, #-4]
 8000f1a:	f023 0301 	bic.w	r3, r3, #1
 8000f1e:	444b      	add	r3, r9
 8000f20:	f1a0 0208 	sub.w	r2, r0, #8
 8000f24:	4293      	cmp	r3, r2
 8000f26:	f000 80d2 	beq.w	80010ce <_realloc_r+0x24a>
 8000f2a:	1f32      	subs	r2, r6, #4
 8000f2c:	2a24      	cmp	r2, #36	; 0x24
 8000f2e:	f200 80f5 	bhi.w	800111c <_realloc_r+0x298>
 8000f32:	2a13      	cmp	r2, #19
 8000f34:	f200 80ac 	bhi.w	8001090 <_realloc_r+0x20c>
 8000f38:	4603      	mov	r3, r0
 8000f3a:	4622      	mov	r2, r4
 8000f3c:	6811      	ldr	r1, [r2, #0]
 8000f3e:	6019      	str	r1, [r3, #0]
 8000f40:	6851      	ldr	r1, [r2, #4]
 8000f42:	6059      	str	r1, [r3, #4]
 8000f44:	6892      	ldr	r2, [r2, #8]
 8000f46:	609a      	str	r2, [r3, #8]
 8000f48:	4621      	mov	r1, r4
 8000f4a:	4640      	mov	r0, r8
 8000f4c:	f000 fc1e 	bl	800178c <_free_r>
 8000f50:	4640      	mov	r0, r8
 8000f52:	f7ff ff91 	bl	8000e78 <__malloc_unlock>
 8000f56:	4638      	mov	r0, r7
 8000f58:	e8bd 8ff8 	ldmia.w	sp!, {r3, r4, r5, r6, r7, r8, r9, sl, fp, pc}
 8000f5c:	f025 0507 	bic.w	r5, r5, #7
 8000f60:	2d00      	cmp	r5, #0
 8000f62:	462a      	mov	r2, r5
 8000f64:	da9e      	bge.n	8000ea4 <_realloc_r+0x20>
 8000f66:	230c      	movs	r3, #12
 8000f68:	f8c8 3000 	str.w	r3, [r8]
 8000f6c:	2700      	movs	r7, #0
 8000f6e:	4638      	mov	r0, r7
 8000f70:	e8bd 8ff8 	ldmia.w	sp!, {r3, r4, r5, r6, r7, r8, r9, sl, fp, pc}
 8000f74:	461e      	mov	r6, r3
 8000f76:	e9d0 2302 	ldrd	r2, r3, [r0, #8]
 8000f7a:	60d3      	str	r3, [r2, #12]
 8000f7c:	609a      	str	r2, [r3, #8]
 8000f7e:	1b73      	subs	r3, r6, r5
 8000f80:	2b0f      	cmp	r3, #15
 8000f82:	d822      	bhi.n	8000fca <_realloc_r+0x146>
 8000f84:	f8d9 3004 	ldr.w	r3, [r9, #4]
 8000f88:	f003 0301 	and.w	r3, r3, #1
 8000f8c:	4333      	orrs	r3, r6
 8000f8e:	444e      	add	r6, r9
 8000f90:	f8c9 3004 	str.w	r3, [r9, #4]
 8000f94:	6873      	ldr	r3, [r6, #4]
 8000f96:	f043 0301 	orr.w	r3, r3, #1
 8000f9a:	6073      	str	r3, [r6, #4]
 8000f9c:	4640      	mov	r0, r8
 8000f9e:	4627      	mov	r7, r4
 8000fa0:	f7ff ff6a 	bl	8000e78 <__malloc_unlock>
 8000fa4:	4638      	mov	r0, r7
 8000fa6:	e8bd 8ff8 	ldmia.w	sp!, {r3, r4, r5, r6, r7, r8, r9, sl, fp, pc}
 8000faa:	07c9      	lsls	r1, r1, #31
 8000fac:	d4ad      	bmi.n	8000f0a <_realloc_r+0x86>
 8000fae:	f854 3c08 	ldr.w	r3, [r4, #-8]
 8000fb2:	eba9 0a03 	sub.w	sl, r9, r3
 8000fb6:	f8da 1004 	ldr.w	r1, [sl, #4]
 8000fba:	f021 0103 	bic.w	r1, r1, #3
 8000fbe:	e7a0      	b.n	8000f02 <_realloc_r+0x7e>
 8000fc0:	e8bd 4ff8 	ldmia.w	sp!, {r3, r4, r5, r6, r7, r8, r9, sl, fp, lr}
 8000fc4:	4611      	mov	r1, r2
 8000fc6:	f7ff bb37 	b.w	8000638 <_malloc_r>
 8000fca:	f8d9 1004 	ldr.w	r1, [r9, #4]
 8000fce:	f001 0101 	and.w	r1, r1, #1
 8000fd2:	4329      	orrs	r1, r5
 8000fd4:	f8c9 1004 	str.w	r1, [r9, #4]
 8000fd8:	eb09 0105 	add.w	r1, r9, r5
 8000fdc:	444e      	add	r6, r9
 8000fde:	f043 0301 	orr.w	r3, r3, #1
 8000fe2:	604b      	str	r3, [r1, #4]
 8000fe4:	6873      	ldr	r3, [r6, #4]
 8000fe6:	f043 0301 	orr.w	r3, r3, #1
 8000fea:	3108      	adds	r1, #8
 8000fec:	6073      	str	r3, [r6, #4]
 8000fee:	4640      	mov	r0, r8
 8000ff0:	f000 fbcc 	bl	800178c <_free_r>
 8000ff4:	e7d2      	b.n	8000f9c <_realloc_r+0x118>
 8000ff6:	f8dc 0004 	ldr.w	r0, [ip, #4]
 8000ffa:	f020 0b03 	bic.w	fp, r0, #3
 8000ffe:	eb06 0c0b 	add.w	ip, r6, fp
 8001002:	f105 0010 	add.w	r0, r5, #16
 8001006:	4584      	cmp	ip, r0
 8001008:	da4d      	bge.n	80010a6 <_realloc_r+0x222>
 800100a:	07c9      	lsls	r1, r1, #31
 800100c:	f53f af7d 	bmi.w	8000f0a <_realloc_r+0x86>
 8001010:	f854 1c08 	ldr.w	r1, [r4, #-8]
 8001014:	eba9 0a01 	sub.w	sl, r9, r1
 8001018:	f8da 1004 	ldr.w	r1, [sl, #4]
 800101c:	f021 0103 	bic.w	r1, r1, #3
 8001020:	448b      	add	fp, r1
 8001022:	44b3      	add	fp, r6
 8001024:	4558      	cmp	r0, fp
 8001026:	f73f af6c 	bgt.w	8000f02 <_realloc_r+0x7e>
 800102a:	4657      	mov	r7, sl
 800102c:	f8da 100c 	ldr.w	r1, [sl, #12]
 8001030:	f857 0f08 	ldr.w	r0, [r7, #8]!
 8001034:	1f32      	subs	r2, r6, #4
 8001036:	2a24      	cmp	r2, #36	; 0x24
 8001038:	60c1      	str	r1, [r0, #12]
 800103a:	6088      	str	r0, [r1, #8]
 800103c:	f200 80db 	bhi.w	80011f6 <_realloc_r+0x372>
 8001040:	2a13      	cmp	r2, #19
 8001042:	f240 80d6 	bls.w	80011f2 <_realloc_r+0x36e>
 8001046:	6821      	ldr	r1, [r4, #0]
 8001048:	f8ca 1008 	str.w	r1, [sl, #8]
 800104c:	6861      	ldr	r1, [r4, #4]
 800104e:	f8ca 100c 	str.w	r1, [sl, #12]
 8001052:	2a1b      	cmp	r2, #27
 8001054:	f200 80df 	bhi.w	8001216 <_realloc_r+0x392>
 8001058:	3408      	adds	r4, #8
 800105a:	f10a 0210 	add.w	r2, sl, #16
 800105e:	6821      	ldr	r1, [r4, #0]
 8001060:	6011      	str	r1, [r2, #0]
 8001062:	6861      	ldr	r1, [r4, #4]
 8001064:	6051      	str	r1, [r2, #4]
 8001066:	68a1      	ldr	r1, [r4, #8]
 8001068:	6091      	str	r1, [r2, #8]
 800106a:	eb0a 0105 	add.w	r1, sl, r5
 800106e:	ebab 0205 	sub.w	r2, fp, r5
 8001072:	f042 0201 	orr.w	r2, r2, #1
 8001076:	6099      	str	r1, [r3, #8]
 8001078:	604a      	str	r2, [r1, #4]
 800107a:	f8da 3004 	ldr.w	r3, [sl, #4]
 800107e:	f003 0301 	and.w	r3, r3, #1
 8001082:	431d      	orrs	r5, r3
 8001084:	4640      	mov	r0, r8
 8001086:	f8ca 5004 	str.w	r5, [sl, #4]
 800108a:	f7ff fef5 	bl	8000e78 <__malloc_unlock>
 800108e:	e76e      	b.n	8000f6e <_realloc_r+0xea>
 8001090:	6823      	ldr	r3, [r4, #0]
 8001092:	6003      	str	r3, [r0, #0]
 8001094:	6863      	ldr	r3, [r4, #4]
 8001096:	6043      	str	r3, [r0, #4]
 8001098:	2a1b      	cmp	r2, #27
 800109a:	d868      	bhi.n	800116e <_realloc_r+0x2ea>
 800109c:	f104 0208 	add.w	r2, r4, #8
 80010a0:	f100 0308 	add.w	r3, r0, #8
 80010a4:	e74a      	b.n	8000f3c <_realloc_r+0xb8>
 80010a6:	eb09 0205 	add.w	r2, r9, r5
 80010aa:	609a      	str	r2, [r3, #8]
 80010ac:	ebac 0305 	sub.w	r3, ip, r5
 80010b0:	f043 0301 	orr.w	r3, r3, #1
 80010b4:	6053      	str	r3, [r2, #4]
 80010b6:	f854 3c04 	ldr.w	r3, [r4, #-4]
 80010ba:	f003 0301 	and.w	r3, r3, #1
 80010be:	431d      	orrs	r5, r3
 80010c0:	4640      	mov	r0, r8
 80010c2:	f844 5c04 	str.w	r5, [r4, #-4]
 80010c6:	f7ff fed7 	bl	8000e78 <__malloc_unlock>
 80010ca:	4627      	mov	r7, r4
 80010cc:	e74f      	b.n	8000f6e <_realloc_r+0xea>
 80010ce:	f850 3c04 	ldr.w	r3, [r0, #-4]
 80010d2:	f023 0303 	bic.w	r3, r3, #3
 80010d6:	441e      	add	r6, r3
 80010d8:	e751      	b.n	8000f7e <_realloc_r+0xfa>
 80010da:	4657      	mov	r7, sl
 80010dc:	f8da 100c 	ldr.w	r1, [sl, #12]
 80010e0:	f857 0f08 	ldr.w	r0, [r7, #8]!
 80010e4:	1f32      	subs	r2, r6, #4
 80010e6:	2a24      	cmp	r2, #36	; 0x24
 80010e8:	60c1      	str	r1, [r0, #12]
 80010ea:	6088      	str	r0, [r1, #8]
 80010ec:	d84c      	bhi.n	8001188 <_realloc_r+0x304>
 80010ee:	2a13      	cmp	r2, #19
 80010f0:	d948      	bls.n	8001184 <_realloc_r+0x300>
 80010f2:	6821      	ldr	r1, [r4, #0]
 80010f4:	f8ca 1008 	str.w	r1, [sl, #8]
 80010f8:	6861      	ldr	r1, [r4, #4]
 80010fa:	f8ca 100c 	str.w	r1, [sl, #12]
 80010fe:	2a1b      	cmp	r2, #27
 8001100:	d856      	bhi.n	80011b0 <_realloc_r+0x32c>
 8001102:	3408      	adds	r4, #8
 8001104:	f10a 0210 	add.w	r2, sl, #16
 8001108:	461e      	mov	r6, r3
 800110a:	6823      	ldr	r3, [r4, #0]
 800110c:	6013      	str	r3, [r2, #0]
 800110e:	6863      	ldr	r3, [r4, #4]
 8001110:	6053      	str	r3, [r2, #4]
 8001112:	68a3      	ldr	r3, [r4, #8]
 8001114:	6093      	str	r3, [r2, #8]
 8001116:	46d1      	mov	r9, sl
 8001118:	463c      	mov	r4, r7
 800111a:	e730      	b.n	8000f7e <_realloc_r+0xfa>
 800111c:	4621      	mov	r1, r4
 800111e:	f7ff fe29 	bl	8000d74 <memmove>
 8001122:	e711      	b.n	8000f48 <_realloc_r+0xc4>
 8001124:	e9d0 1302 	ldrd	r1, r3, [r0, #8]
 8001128:	4657      	mov	r7, sl
 800112a:	60cb      	str	r3, [r1, #12]
 800112c:	6099      	str	r1, [r3, #8]
 800112e:	f857 1f08 	ldr.w	r1, [r7, #8]!
 8001132:	f8da 300c 	ldr.w	r3, [sl, #12]
 8001136:	60cb      	str	r3, [r1, #12]
 8001138:	1f32      	subs	r2, r6, #4
 800113a:	2a24      	cmp	r2, #36	; 0x24
 800113c:	6099      	str	r1, [r3, #8]
 800113e:	d82d      	bhi.n	800119c <_realloc_r+0x318>
 8001140:	2a13      	cmp	r2, #19
 8001142:	d929      	bls.n	8001198 <_realloc_r+0x314>
 8001144:	6823      	ldr	r3, [r4, #0]
 8001146:	f8ca 3008 	str.w	r3, [sl, #8]
 800114a:	6863      	ldr	r3, [r4, #4]
 800114c:	f8ca 300c 	str.w	r3, [sl, #12]
 8001150:	2a1b      	cmp	r2, #27
 8001152:	d842      	bhi.n	80011da <_realloc_r+0x356>
 8001154:	3408      	adds	r4, #8
 8001156:	f10a 0310 	add.w	r3, sl, #16
 800115a:	6822      	ldr	r2, [r4, #0]
 800115c:	601a      	str	r2, [r3, #0]
 800115e:	6862      	ldr	r2, [r4, #4]
 8001160:	605a      	str	r2, [r3, #4]
 8001162:	68a2      	ldr	r2, [r4, #8]
 8001164:	609a      	str	r2, [r3, #8]
 8001166:	4666      	mov	r6, ip
 8001168:	46d1      	mov	r9, sl
 800116a:	463c      	mov	r4, r7
 800116c:	e707      	b.n	8000f7e <_realloc_r+0xfa>
 800116e:	68a3      	ldr	r3, [r4, #8]
 8001170:	6083      	str	r3, [r0, #8]
 8001172:	68e3      	ldr	r3, [r4, #12]
 8001174:	60c3      	str	r3, [r0, #12]
 8001176:	2a24      	cmp	r2, #36	; 0x24
 8001178:	d026      	beq.n	80011c8 <_realloc_r+0x344>
 800117a:	f104 0210 	add.w	r2, r4, #16
 800117e:	f100 0310 	add.w	r3, r0, #16
 8001182:	e6db      	b.n	8000f3c <_realloc_r+0xb8>
 8001184:	463a      	mov	r2, r7
 8001186:	e7bf      	b.n	8001108 <_realloc_r+0x284>
 8001188:	4621      	mov	r1, r4
 800118a:	4638      	mov	r0, r7
 800118c:	461e      	mov	r6, r3
 800118e:	46d1      	mov	r9, sl
 8001190:	f7ff fdf0 	bl	8000d74 <memmove>
 8001194:	463c      	mov	r4, r7
 8001196:	e6f2      	b.n	8000f7e <_realloc_r+0xfa>
 8001198:	463b      	mov	r3, r7
 800119a:	e7de      	b.n	800115a <_realloc_r+0x2d6>
 800119c:	4621      	mov	r1, r4
 800119e:	4638      	mov	r0, r7
 80011a0:	4666      	mov	r6, ip
 80011a2:	46d1      	mov	r9, sl
 80011a4:	f7ff fde6 	bl	8000d74 <memmove>
 80011a8:	463c      	mov	r4, r7
 80011aa:	e6e8      	b.n	8000f7e <_realloc_r+0xfa>
 80011ac:	20000440 	.word	0x20000440
 80011b0:	68a1      	ldr	r1, [r4, #8]
 80011b2:	f8ca 1010 	str.w	r1, [sl, #16]
 80011b6:	68e1      	ldr	r1, [r4, #12]
 80011b8:	f8ca 1014 	str.w	r1, [sl, #20]
 80011bc:	2a24      	cmp	r2, #36	; 0x24
 80011be:	d020      	beq.n	8001202 <_realloc_r+0x37e>
 80011c0:	3410      	adds	r4, #16
 80011c2:	f10a 0218 	add.w	r2, sl, #24
 80011c6:	e79f      	b.n	8001108 <_realloc_r+0x284>
 80011c8:	6923      	ldr	r3, [r4, #16]
 80011ca:	6103      	str	r3, [r0, #16]
 80011cc:	6961      	ldr	r1, [r4, #20]
 80011ce:	6141      	str	r1, [r0, #20]
 80011d0:	f104 0218 	add.w	r2, r4, #24
 80011d4:	f100 0318 	add.w	r3, r0, #24
 80011d8:	e6b0      	b.n	8000f3c <_realloc_r+0xb8>
 80011da:	68a3      	ldr	r3, [r4, #8]
 80011dc:	f8ca 3010 	str.w	r3, [sl, #16]
 80011e0:	68e3      	ldr	r3, [r4, #12]
 80011e2:	f8ca 3014 	str.w	r3, [sl, #20]
 80011e6:	2a24      	cmp	r2, #36	; 0x24
 80011e8:	d021      	beq.n	800122e <_realloc_r+0x3aa>
 80011ea:	3410      	adds	r4, #16
 80011ec:	f10a 0318 	add.w	r3, sl, #24
 80011f0:	e7b3      	b.n	800115a <_realloc_r+0x2d6>
 80011f2:	463a      	mov	r2, r7
 80011f4:	e733      	b.n	800105e <_realloc_r+0x1da>
 80011f6:	4621      	mov	r1, r4
 80011f8:	4638      	mov	r0, r7
 80011fa:	f7ff fdbb 	bl	8000d74 <memmove>
 80011fe:	4b16      	ldr	r3, [pc, #88]	; (8001258 <_realloc_r+0x3d4>)
 8001200:	e733      	b.n	800106a <_realloc_r+0x1e6>
 8001202:	6922      	ldr	r2, [r4, #16]
 8001204:	f8ca 2018 	str.w	r2, [sl, #24]
 8001208:	6962      	ldr	r2, [r4, #20]
 800120a:	f8ca 201c 	str.w	r2, [sl, #28]
 800120e:	3418      	adds	r4, #24
 8001210:	f10a 0220 	add.w	r2, sl, #32
 8001214:	e778      	b.n	8001108 <_realloc_r+0x284>
 8001216:	68a1      	ldr	r1, [r4, #8]
 8001218:	f8ca 1010 	str.w	r1, [sl, #16]
 800121c:	68e1      	ldr	r1, [r4, #12]
 800121e:	f8ca 1014 	str.w	r1, [sl, #20]
 8001222:	2a24      	cmp	r2, #36	; 0x24
 8001224:	d00d      	beq.n	8001242 <_realloc_r+0x3be>
 8001226:	3410      	adds	r4, #16
 8001228:	f10a 0218 	add.w	r2, sl, #24
 800122c:	e717      	b.n	800105e <_realloc_r+0x1da>
 800122e:	6923      	ldr	r3, [r4, #16]
 8001230:	f8ca 3018 	str.w	r3, [sl, #24]
 8001234:	6963      	ldr	r3, [r4, #20]
 8001236:	f8ca 301c 	str.w	r3, [sl, #28]
 800123a:	3418      	adds	r4, #24
 800123c:	f10a 0320 	add.w	r3, sl, #32
 8001240:	e78b      	b.n	800115a <_realloc_r+0x2d6>
 8001242:	6922      	ldr	r2, [r4, #16]
 8001244:	f8ca 2018 	str.w	r2, [sl, #24]
 8001248:	6962      	ldr	r2, [r4, #20]
 800124a:	f8ca 201c 	str.w	r2, [sl, #28]
 800124e:	3418      	adds	r4, #24
 8001250:	f10a 0220 	add.w	r2, sl, #32
 8001254:	e703      	b.n	800105e <_realloc_r+0x1da>
 8001256:	bf00      	nop
 8001258:	20000440 	.word	0x20000440

0800125c <_sbrk_r>:
 800125c:	b538      	push	{r3, r4, r5, lr}
 800125e:	4d07      	ldr	r5, [pc, #28]	; (800127c <_sbrk_r+0x20>)
 8001260:	2200      	movs	r2, #0
 8001262:	4604      	mov	r4, r0
 8001264:	4608      	mov	r0, r1
 8001266:	602a      	str	r2, [r5, #0]
 8001268:	f000 fdcc 	bl	8001e04 <_sbrk>
 800126c:	1c43      	adds	r3, r0, #1
 800126e:	d000      	beq.n	8001272 <_sbrk_r+0x16>
 8001270:	bd38      	pop	{r3, r4, r5, pc}
 8001272:	682b      	ldr	r3, [r5, #0]
 8001274:	2b00      	cmp	r3, #0
 8001276:	d0fb      	beq.n	8001270 <_sbrk_r+0x14>
 8001278:	6023      	str	r3, [r4, #0]
 800127a:	bd38      	pop	{r3, r4, r5, pc}
 800127c:	20000890 	.word	0x20000890

08001280 <strlen>:
 8001280:	f890 f000 	pld	[r0]
 8001284:	e96d 4502 	strd	r4, r5, [sp, #-8]!
 8001288:	f020 0107 	bic.w	r1, r0, #7
 800128c:	f06f 0c00 	mvn.w	ip, #0
 8001290:	f010 0407 	ands.w	r4, r0, #7
 8001294:	f891 f020 	pld	[r1, #32]
 8001298:	f040 8049 	bne.w	800132e <strlen+0xae>
 800129c:	f04f 0400 	mov.w	r4, #0
 80012a0:	f06f 0007 	mvn.w	r0, #7
 80012a4:	e9d1 2300 	ldrd	r2, r3, [r1]
 80012a8:	f891 f040 	pld	[r1, #64]	; 0x40
 80012ac:	f100 0008 	add.w	r0, r0, #8
 80012b0:	fa82 f24c 	uadd8	r2, r2, ip
 80012b4:	faa4 f28c 	sel	r2, r4, ip
 80012b8:	fa83 f34c 	uadd8	r3, r3, ip
 80012bc:	faa2 f38c 	sel	r3, r2, ip
 80012c0:	bb4b      	cbnz	r3, 8001316 <strlen+0x96>
 80012c2:	e9d1 2302 	ldrd	r2, r3, [r1, #8]
 80012c6:	fa82 f24c 	uadd8	r2, r2, ip
 80012ca:	f100 0008 	add.w	r0, r0, #8
 80012ce:	faa4 f28c 	sel	r2, r4, ip
 80012d2:	fa83 f34c 	uadd8	r3, r3, ip
 80012d6:	faa2 f38c 	sel	r3, r2, ip
 80012da:	b9e3      	cbnz	r3, 8001316 <strlen+0x96>
 80012dc:	e9d1 2304 	ldrd	r2, r3, [r1, #16]
 80012e0:	fa82 f24c 	uadd8	r2, r2, ip
 80012e4:	f100 0008 	add.w	r0, r0, #8
 80012e8:	faa4 f28c 	sel	r2, r4, ip
 80012ec:	fa83 f34c 	uadd8	r3, r3, ip
 80012f0:	faa2 f38c 	sel	r3, r2, ip
 80012f4:	b97b      	cbnz	r3, 8001316 <strlen+0x96>
 80012f6:	e9d1 2306 	ldrd	r2, r3, [r1, #24]
 80012fa:	f101 0120 	add.w	r1, r1, #32
 80012fe:	fa82 f24c 	uadd8	r2, r2, ip
 8001302:	f100 0008 	add.w	r0, r0, #8
 8001306:	faa4 f28c 	sel	r2, r4, ip
 800130a:	fa83 f34c 	uadd8	r3, r3, ip
 800130e:	faa2 f38c 	sel	r3, r2, ip
 8001312:	2b00      	cmp	r3, #0
 8001314:	d0c6      	beq.n	80012a4 <strlen+0x24>
 8001316:	2a00      	cmp	r2, #0
 8001318:	bf04      	itt	eq
 800131a:	3004      	addeq	r0, #4
 800131c:	461a      	moveq	r2, r3
 800131e:	ba12      	rev	r2, r2
 8001320:	fab2 f282 	clz	r2, r2
 8001324:	e8fd 4502 	ldrd	r4, r5, [sp], #8
 8001328:	eb00 00d2 	add.w	r0, r0, r2, lsr #3
 800132c:	4770      	bx	lr
 800132e:	e9d1 2300 	ldrd	r2, r3, [r1]
 8001332:	f004 0503 	and.w	r5, r4, #3
 8001336:	f1c4 0000 	rsb	r0, r4, #0
 800133a:	ea4f 05c5 	mov.w	r5, r5, lsl #3
 800133e:	f014 0f04 	tst.w	r4, #4
 8001342:	f891 f040 	pld	[r1, #64]	; 0x40
 8001346:	fa0c f505 	lsl.w	r5, ip, r5
 800134a:	ea62 0205 	orn	r2, r2, r5
 800134e:	bf1c      	itt	ne
 8001350:	ea63 0305 	ornne	r3, r3, r5
 8001354:	4662      	movne	r2, ip
 8001356:	f04f 0400 	mov.w	r4, #0
 800135a:	e7a9      	b.n	80012b0 <strlen+0x30>

0800135c <__swsetup_r>:
 800135c:	b538      	push	{r3, r4, r5, lr}
 800135e:	4b33      	ldr	r3, [pc, #204]	; (800142c <__swsetup_r+0xd0>)
 8001360:	681b      	ldr	r3, [r3, #0]
 8001362:	4605      	mov	r5, r0
 8001364:	460c      	mov	r4, r1
 8001366:	b10b      	cbz	r3, 800136c <__swsetup_r+0x10>
 8001368:	6b9a      	ldr	r2, [r3, #56]	; 0x38
 800136a:	b312      	cbz	r2, 80013b2 <__swsetup_r+0x56>
 800136c:	f9b4 300c 	ldrsh.w	r3, [r4, #12]
 8001370:	0718      	lsls	r0, r3, #28
 8001372:	b29a      	uxth	r2, r3
 8001374:	d525      	bpl.n	80013c2 <__swsetup_r+0x66>
 8001376:	6921      	ldr	r1, [r4, #16]
 8001378:	2900      	cmp	r1, #0
 800137a:	d02d      	beq.n	80013d8 <__swsetup_r+0x7c>
 800137c:	f012 0001 	ands.w	r0, r2, #1
 8001380:	d007      	beq.n	8001392 <__swsetup_r+0x36>
 8001382:	2000      	movs	r0, #0
 8001384:	60a0      	str	r0, [r4, #8]
 8001386:	6960      	ldr	r0, [r4, #20]
 8001388:	4240      	negs	r0, r0
 800138a:	61a0      	str	r0, [r4, #24]
 800138c:	b139      	cbz	r1, 800139e <__swsetup_r+0x42>
 800138e:	2000      	movs	r0, #0
 8001390:	bd38      	pop	{r3, r4, r5, pc}
 8001392:	0795      	lsls	r5, r2, #30
 8001394:	bf58      	it	pl
 8001396:	6960      	ldrpl	r0, [r4, #20]
 8001398:	60a0      	str	r0, [r4, #8]
 800139a:	2900      	cmp	r1, #0
 800139c:	d1f7      	bne.n	800138e <__swsetup_r+0x32>
 800139e:	0612      	lsls	r2, r2, #24
 80013a0:	bf58      	it	pl
 80013a2:	4608      	movpl	r0, r1
 80013a4:	d5f4      	bpl.n	8001390 <__swsetup_r+0x34>
 80013a6:	f043 0340 	orr.w	r3, r3, #64	; 0x40
 80013aa:	81a3      	strh	r3, [r4, #12]
 80013ac:	f04f 30ff 	mov.w	r0, #4294967295	; 0xffffffff
 80013b0:	bd38      	pop	{r3, r4, r5, pc}
 80013b2:	4618      	mov	r0, r3
 80013b4:	f000 f908 	bl	80015c8 <__sinit>
 80013b8:	f9b4 300c 	ldrsh.w	r3, [r4, #12]
 80013bc:	0718      	lsls	r0, r3, #28
 80013be:	b29a      	uxth	r2, r3
 80013c0:	d4d9      	bmi.n	8001376 <__swsetup_r+0x1a>
 80013c2:	06d1      	lsls	r1, r2, #27
 80013c4:	d52a      	bpl.n	800141c <__swsetup_r+0xc0>
 80013c6:	0752      	lsls	r2, r2, #29
 80013c8:	d414      	bmi.n	80013f4 <__swsetup_r+0x98>
 80013ca:	6921      	ldr	r1, [r4, #16]
 80013cc:	f043 0308 	orr.w	r3, r3, #8
 80013d0:	81a3      	strh	r3, [r4, #12]
 80013d2:	b29a      	uxth	r2, r3
 80013d4:	2900      	cmp	r1, #0
 80013d6:	d1d1      	bne.n	800137c <__swsetup_r+0x20>
 80013d8:	f402 7020 	and.w	r0, r2, #640	; 0x280
 80013dc:	f5b0 7f00 	cmp.w	r0, #512	; 0x200
 80013e0:	d0cc      	beq.n	800137c <__swsetup_r+0x20>
 80013e2:	4621      	mov	r1, r4
 80013e4:	4628      	mov	r0, r5
 80013e6:	f000 fafb 	bl	80019e0 <__smakebuf_r>
 80013ea:	f9b4 300c 	ldrsh.w	r3, [r4, #12]
 80013ee:	6921      	ldr	r1, [r4, #16]
 80013f0:	b29a      	uxth	r2, r3
 80013f2:	e7c3      	b.n	800137c <__swsetup_r+0x20>
 80013f4:	6b21      	ldr	r1, [r4, #48]	; 0x30
 80013f6:	b151      	cbz	r1, 800140e <__swsetup_r+0xb2>
 80013f8:	f104 0240 	add.w	r2, r4, #64	; 0x40
 80013fc:	4291      	cmp	r1, r2
 80013fe:	d004      	beq.n	800140a <__swsetup_r+0xae>
 8001400:	4628      	mov	r0, r5
 8001402:	f000 f9c3 	bl	800178c <_free_r>
 8001406:	f9b4 300c 	ldrsh.w	r3, [r4, #12]
 800140a:	2200      	movs	r2, #0
 800140c:	6322      	str	r2, [r4, #48]	; 0x30
 800140e:	6921      	ldr	r1, [r4, #16]
 8001410:	2200      	movs	r2, #0
 8001412:	e9c4 1200 	strd	r1, r2, [r4]
 8001416:	f023 0324 	bic.w	r3, r3, #36	; 0x24
 800141a:	e7d7      	b.n	80013cc <__swsetup_r+0x70>
 800141c:	2209      	movs	r2, #9
 800141e:	f043 0340 	orr.w	r3, r3, #64	; 0x40
 8001422:	602a      	str	r2, [r5, #0]
 8001424:	f04f 30ff 	mov.w	r0, #4294967295	; 0xffffffff
 8001428:	81a3      	strh	r3, [r4, #12]
 800142a:	bd38      	pop	{r3, r4, r5, pc}
 800142c:	20000010 	.word	0x20000010

08001430 <__sflush_r>:
 8001430:	f9b1 200c 	ldrsh.w	r2, [r1, #12]
 8001434:	e92d 41f0 	stmdb	sp!, {r4, r5, r6, r7, r8, lr}
 8001438:	460c      	mov	r4, r1
 800143a:	0711      	lsls	r1, r2, #28
 800143c:	4680      	mov	r8, r0
 800143e:	d447      	bmi.n	80014d0 <__sflush_r+0xa0>
 8001440:	6863      	ldr	r3, [r4, #4]
 8001442:	f442 6200 	orr.w	r2, r2, #2048	; 0x800
 8001446:	2b00      	cmp	r3, #0
 8001448:	81a2      	strh	r2, [r4, #12]
 800144a:	dd5e      	ble.n	800150a <__sflush_r+0xda>
 800144c:	6aa5      	ldr	r5, [r4, #40]	; 0x28
 800144e:	2d00      	cmp	r5, #0
 8001450:	d058      	beq.n	8001504 <__sflush_r+0xd4>
 8001452:	2300      	movs	r3, #0
 8001454:	f8d8 6000 	ldr.w	r6, [r8]
 8001458:	f8c8 3000 	str.w	r3, [r8]
 800145c:	b293      	uxth	r3, r2
 800145e:	f412 5280 	ands.w	r2, r2, #4096	; 0x1000
 8001462:	d156      	bne.n	8001512 <__sflush_r+0xe2>
 8001464:	2301      	movs	r3, #1
 8001466:	69e1      	ldr	r1, [r4, #28]
 8001468:	4640      	mov	r0, r8
 800146a:	47a8      	blx	r5
 800146c:	1c43      	adds	r3, r0, #1
 800146e:	d067      	beq.n	8001540 <__sflush_r+0x110>
 8001470:	89a3      	ldrh	r3, [r4, #12]
 8001472:	6aa5      	ldr	r5, [r4, #40]	; 0x28
 8001474:	075f      	lsls	r7, r3, #29
 8001476:	d505      	bpl.n	8001484 <__sflush_r+0x54>
 8001478:	6863      	ldr	r3, [r4, #4]
 800147a:	1ac0      	subs	r0, r0, r3
 800147c:	6b23      	ldr	r3, [r4, #48]	; 0x30
 800147e:	b10b      	cbz	r3, 8001484 <__sflush_r+0x54>
 8001480:	6be3      	ldr	r3, [r4, #60]	; 0x3c
 8001482:	1ac0      	subs	r0, r0, r3
 8001484:	69e1      	ldr	r1, [r4, #28]
 8001486:	4602      	mov	r2, r0
 8001488:	2300      	movs	r3, #0
 800148a:	4640      	mov	r0, r8
 800148c:	47a8      	blx	r5
 800148e:	1c41      	adds	r1, r0, #1
 8001490:	d141      	bne.n	8001516 <__sflush_r+0xe6>
 8001492:	f8d8 3000 	ldr.w	r3, [r8]
 8001496:	2b00      	cmp	r3, #0
 8001498:	d03d      	beq.n	8001516 <__sflush_r+0xe6>
 800149a:	2b1d      	cmp	r3, #29
 800149c:	d001      	beq.n	80014a2 <__sflush_r+0x72>
 800149e:	2b16      	cmp	r3, #22
 80014a0:	d156      	bne.n	8001550 <__sflush_r+0x120>
 80014a2:	89a3      	ldrh	r3, [r4, #12]
 80014a4:	6922      	ldr	r2, [r4, #16]
 80014a6:	6022      	str	r2, [r4, #0]
 80014a8:	f423 6300 	bic.w	r3, r3, #2048	; 0x800
 80014ac:	2100      	movs	r1, #0
 80014ae:	6061      	str	r1, [r4, #4]
 80014b0:	81a3      	strh	r3, [r4, #12]
 80014b2:	6b21      	ldr	r1, [r4, #48]	; 0x30
 80014b4:	f8c8 6000 	str.w	r6, [r8]
 80014b8:	b321      	cbz	r1, 8001504 <__sflush_r+0xd4>
 80014ba:	f104 0340 	add.w	r3, r4, #64	; 0x40
 80014be:	4299      	cmp	r1, r3
 80014c0:	d002      	beq.n	80014c8 <__sflush_r+0x98>
 80014c2:	4640      	mov	r0, r8
 80014c4:	f000 f962 	bl	800178c <_free_r>
 80014c8:	2000      	movs	r0, #0
 80014ca:	6320      	str	r0, [r4, #48]	; 0x30
 80014cc:	e8bd 81f0 	ldmia.w	sp!, {r4, r5, r6, r7, r8, pc}
 80014d0:	6926      	ldr	r6, [r4, #16]
 80014d2:	b1be      	cbz	r6, 8001504 <__sflush_r+0xd4>
 80014d4:	b293      	uxth	r3, r2
 80014d6:	6825      	ldr	r5, [r4, #0]
 80014d8:	6026      	str	r6, [r4, #0]
 80014da:	079a      	lsls	r2, r3, #30
 80014dc:	bf0c      	ite	eq
 80014de:	6963      	ldreq	r3, [r4, #20]
 80014e0:	2300      	movne	r3, #0
 80014e2:	1bad      	subs	r5, r5, r6
 80014e4:	60a3      	str	r3, [r4, #8]
 80014e6:	e00b      	b.n	8001500 <__sflush_r+0xd0>
 80014e8:	462b      	mov	r3, r5
 80014ea:	4632      	mov	r2, r6
 80014ec:	69e1      	ldr	r1, [r4, #28]
 80014ee:	6a67      	ldr	r7, [r4, #36]	; 0x24
 80014f0:	4640      	mov	r0, r8
 80014f2:	47b8      	blx	r7
 80014f4:	f1b0 0c00 	subs.w	ip, r0, #0
 80014f8:	eba5 050c 	sub.w	r5, r5, ip
 80014fc:	4466      	add	r6, ip
 80014fe:	dd17      	ble.n	8001530 <__sflush_r+0x100>
 8001500:	2d00      	cmp	r5, #0
 8001502:	dcf1      	bgt.n	80014e8 <__sflush_r+0xb8>
 8001504:	2000      	movs	r0, #0
 8001506:	e8bd 81f0 	ldmia.w	sp!, {r4, r5, r6, r7, r8, pc}
 800150a:	6be3      	ldr	r3, [r4, #60]	; 0x3c
 800150c:	2b00      	cmp	r3, #0
 800150e:	dc9d      	bgt.n	800144c <__sflush_r+0x1c>
 8001510:	e7f8      	b.n	8001504 <__sflush_r+0xd4>
 8001512:	6d20      	ldr	r0, [r4, #80]	; 0x50
 8001514:	e7ae      	b.n	8001474 <__sflush_r+0x44>
 8001516:	f9b4 300c 	ldrsh.w	r3, [r4, #12]
 800151a:	6922      	ldr	r2, [r4, #16]
 800151c:	6022      	str	r2, [r4, #0]
 800151e:	f423 6300 	bic.w	r3, r3, #2048	; 0x800
 8001522:	81a3      	strh	r3, [r4, #12]
 8001524:	2200      	movs	r2, #0
 8001526:	04db      	lsls	r3, r3, #19
 8001528:	6062      	str	r2, [r4, #4]
 800152a:	d5c2      	bpl.n	80014b2 <__sflush_r+0x82>
 800152c:	6520      	str	r0, [r4, #80]	; 0x50
 800152e:	e7c0      	b.n	80014b2 <__sflush_r+0x82>
 8001530:	89a3      	ldrh	r3, [r4, #12]
 8001532:	f043 0340 	orr.w	r3, r3, #64	; 0x40
 8001536:	f04f 30ff 	mov.w	r0, #4294967295	; 0xffffffff
 800153a:	81a3      	strh	r3, [r4, #12]
 800153c:	e8bd 81f0 	ldmia.w	sp!, {r4, r5, r6, r7, r8, pc}
 8001540:	f8d8 3000 	ldr.w	r3, [r8]
 8001544:	2b00      	cmp	r3, #0
 8001546:	d093      	beq.n	8001470 <__sflush_r+0x40>
 8001548:	2b1d      	cmp	r3, #29
 800154a:	d006      	beq.n	800155a <__sflush_r+0x12a>
 800154c:	2b16      	cmp	r3, #22
 800154e:	d004      	beq.n	800155a <__sflush_r+0x12a>
 8001550:	89a3      	ldrh	r3, [r4, #12]
 8001552:	f043 0340 	orr.w	r3, r3, #64	; 0x40
 8001556:	81a3      	strh	r3, [r4, #12]
 8001558:	e7d5      	b.n	8001506 <__sflush_r+0xd6>
 800155a:	f8c8 6000 	str.w	r6, [r8]
 800155e:	e7d1      	b.n	8001504 <__sflush_r+0xd4>

08001560 <_fflush_r>:
 8001560:	b538      	push	{r3, r4, r5, lr}
 8001562:	460c      	mov	r4, r1
 8001564:	4605      	mov	r5, r0
 8001566:	b108      	cbz	r0, 800156c <_fflush_r+0xc>
 8001568:	6b83      	ldr	r3, [r0, #56]	; 0x38
 800156a:	b1a3      	cbz	r3, 8001596 <_fflush_r+0x36>
 800156c:	f9b4 000c 	ldrsh.w	r0, [r4, #12]
 8001570:	b1b8      	cbz	r0, 80015a2 <_fflush_r+0x42>
 8001572:	6e63      	ldr	r3, [r4, #100]	; 0x64
 8001574:	07db      	lsls	r3, r3, #31
 8001576:	d401      	bmi.n	800157c <_fflush_r+0x1c>
 8001578:	0581      	lsls	r1, r0, #22
 800157a:	d515      	bpl.n	80015a8 <_fflush_r+0x48>
 800157c:	4628      	mov	r0, r5
 800157e:	4621      	mov	r1, r4
 8001580:	f7ff ff56 	bl	8001430 <__sflush_r>
 8001584:	6e63      	ldr	r3, [r4, #100]	; 0x64
 8001586:	07da      	lsls	r2, r3, #31
 8001588:	4605      	mov	r5, r0
 800158a:	d402      	bmi.n	8001592 <_fflush_r+0x32>
 800158c:	89a3      	ldrh	r3, [r4, #12]
 800158e:	059b      	lsls	r3, r3, #22
 8001590:	d50e      	bpl.n	80015b0 <_fflush_r+0x50>
 8001592:	4628      	mov	r0, r5
 8001594:	bd38      	pop	{r3, r4, r5, pc}
 8001596:	f000 f817 	bl	80015c8 <__sinit>
 800159a:	f9b4 000c 	ldrsh.w	r0, [r4, #12]
 800159e:	2800      	cmp	r0, #0
 80015a0:	d1e7      	bne.n	8001572 <_fflush_r+0x12>
 80015a2:	4605      	mov	r5, r0
 80015a4:	4628      	mov	r0, r5
 80015a6:	bd38      	pop	{r3, r4, r5, pc}
 80015a8:	6da0      	ldr	r0, [r4, #88]	; 0x58
 80015aa:	f7ff f841 	bl	8000630 <__retarget_lock_acquire_recursive>
 80015ae:	e7e5      	b.n	800157c <_fflush_r+0x1c>
 80015b0:	6da0      	ldr	r0, [r4, #88]	; 0x58
 80015b2:	f7ff f83f 	bl	8000634 <__retarget_lock_release_recursive>
 80015b6:	4628      	mov	r0, r5
 80015b8:	bd38      	pop	{r3, r4, r5, pc}
 80015ba:	bf00      	nop

080015bc <_cleanup_r>:
 80015bc:	4901      	ldr	r1, [pc, #4]	; (80015c4 <_cleanup_r+0x8>)
 80015be:	f000 b9eb 	b.w	8001998 <_fwalk_reent>
 80015c2:	bf00      	nop
 80015c4:	08001c41 	.word	0x08001c41

080015c8 <__sinit>:
 80015c8:	e92d 47f0 	stmdb	sp!, {r4, r5, r6, r7, r8, r9, sl, lr}
 80015cc:	4682      	mov	sl, r0
 80015ce:	4839      	ldr	r0, [pc, #228]	; (80016b4 <__sinit+0xec>)
 80015d0:	f7ff f82e 	bl	8000630 <__retarget_lock_acquire_recursive>
 80015d4:	f8da 4038 	ldr.w	r4, [sl, #56]	; 0x38
 80015d8:	2c00      	cmp	r4, #0
 80015da:	d166      	bne.n	80016aa <__sinit+0xe2>
 80015dc:	f8da 5004 	ldr.w	r5, [sl, #4]
 80015e0:	4a35      	ldr	r2, [pc, #212]	; (80016b8 <__sinit+0xf0>)
 80015e2:	f8ca 203c 	str.w	r2, [sl, #60]	; 0x3c
 80015e6:	2303      	movs	r3, #3
 80015e8:	e9ca 43b8 	strd	r4, r3, [sl, #736]	; 0x2e0
 80015ec:	f8df 90dc 	ldr.w	r9, [pc, #220]	; 80016cc <__sinit+0x104>
 80015f0:	f8df 80dc 	ldr.w	r8, [pc, #220]	; 80016d0 <__sinit+0x108>
 80015f4:	4f31      	ldr	r7, [pc, #196]	; (80016bc <__sinit+0xf4>)
 80015f6:	4e32      	ldr	r6, [pc, #200]	; (80016c0 <__sinit+0xf8>)
 80015f8:	2304      	movs	r3, #4
 80015fa:	f50a 723b 	add.w	r2, sl, #748	; 0x2ec
 80015fe:	f8ca 22e8 	str.w	r2, [sl, #744]	; 0x2e8
 8001602:	4621      	mov	r1, r4
 8001604:	e9c5 4302 	strd	r4, r3, [r5, #8]
 8001608:	e9c5 4400 	strd	r4, r4, [r5]
 800160c:	e9c5 4404 	strd	r4, r4, [r5, #16]
 8001610:	666c      	str	r4, [r5, #100]	; 0x64
 8001612:	2208      	movs	r2, #8
 8001614:	61ac      	str	r4, [r5, #24]
 8001616:	f105 005c 	add.w	r0, r5, #92	; 0x5c
 800161a:	f000 fa51 	bl	8001ac0 <memset>
 800161e:	e9c5 5907 	strd	r5, r9, [r5, #28]
 8001622:	e9c5 8709 	strd	r8, r7, [r5, #36]	; 0x24
 8001626:	62ee      	str	r6, [r5, #44]	; 0x2c
 8001628:	f105 0058 	add.w	r0, r5, #88	; 0x58
 800162c:	f7fe fffc 	bl	8000628 <__retarget_lock_init_recursive>
 8001630:	f8da 5008 	ldr.w	r5, [sl, #8]
 8001634:	4b23      	ldr	r3, [pc, #140]	; (80016c4 <__sinit+0xfc>)
 8001636:	60eb      	str	r3, [r5, #12]
 8001638:	4621      	mov	r1, r4
 800163a:	e9c5 4400 	strd	r4, r4, [r5]
 800163e:	e9c5 4404 	strd	r4, r4, [r5, #16]
 8001642:	666c      	str	r4, [r5, #100]	; 0x64
 8001644:	60ac      	str	r4, [r5, #8]
 8001646:	61ac      	str	r4, [r5, #24]
 8001648:	2208      	movs	r2, #8
 800164a:	f105 005c 	add.w	r0, r5, #92	; 0x5c
 800164e:	f000 fa37 	bl	8001ac0 <memset>
 8001652:	e9c5 5907 	strd	r5, r9, [r5, #28]
 8001656:	e9c5 8709 	strd	r8, r7, [r5, #36]	; 0x24
 800165a:	62ee      	str	r6, [r5, #44]	; 0x2c
 800165c:	f105 0058 	add.w	r0, r5, #88	; 0x58
 8001660:	f7fe ffe2 	bl	8000628 <__retarget_lock_init_recursive>
 8001664:	f8da 500c 	ldr.w	r5, [sl, #12]
 8001668:	4b17      	ldr	r3, [pc, #92]	; (80016c8 <__sinit+0x100>)
 800166a:	60eb      	str	r3, [r5, #12]
 800166c:	4621      	mov	r1, r4
 800166e:	e9c5 4400 	strd	r4, r4, [r5]
 8001672:	e9c5 4404 	strd	r4, r4, [r5, #16]
 8001676:	666c      	str	r4, [r5, #100]	; 0x64
 8001678:	60ac      	str	r4, [r5, #8]
 800167a:	61ac      	str	r4, [r5, #24]
 800167c:	2208      	movs	r2, #8
 800167e:	f105 005c 	add.w	r0, r5, #92	; 0x5c
 8001682:	f000 fa1d 	bl	8001ac0 <memset>
 8001686:	f105 0058 	add.w	r0, r5, #88	; 0x58
 800168a:	e9c5 5907 	strd	r5, r9, [r5, #28]
 800168e:	e9c5 760a 	strd	r7, r6, [r5, #40]	; 0x28
 8001692:	f8c5 8024 	str.w	r8, [r5, #36]	; 0x24
 8001696:	f7fe ffc7 	bl	8000628 <__retarget_lock_init_recursive>
 800169a:	2301      	movs	r3, #1
 800169c:	f8ca 3038 	str.w	r3, [sl, #56]	; 0x38
 80016a0:	4804      	ldr	r0, [pc, #16]	; (80016b4 <__sinit+0xec>)
 80016a2:	e8bd 47f0 	ldmia.w	sp!, {r4, r5, r6, r7, r8, r9, sl, lr}
 80016a6:	f7fe bfc5 	b.w	8000634 <__retarget_lock_release_recursive>
 80016aa:	e8bd 47f0 	ldmia.w	sp!, {r4, r5, r6, r7, r8, r9, sl, lr}
 80016ae:	4801      	ldr	r0, [pc, #4]	; (80016b4 <__sinit+0xec>)
 80016b0:	f7fe bfc0 	b.w	8000634 <__retarget_lock_release_recursive>
 80016b4:	20000858 	.word	0x20000858
 80016b8:	080015bd 	.word	0x080015bd
 80016bc:	08001bc9 	.word	0x08001bc9
 80016c0:	08001be9 	.word	0x08001be9
 80016c4:	00010009 	.word	0x00010009
 80016c8:	00020012 	.word	0x00020012
 80016cc:	08001b65 	.word	0x08001b65
 80016d0:	08001b89 	.word	0x08001b89

080016d4 <__sfp_lock_acquire>:
 80016d4:	4801      	ldr	r0, [pc, #4]	; (80016dc <__sfp_lock_acquire+0x8>)
 80016d6:	f7fe bfab 	b.w	8000630 <__retarget_lock_acquire_recursive>
 80016da:	bf00      	nop
 80016dc:	20000854 	.word	0x20000854

080016e0 <__sfp_lock_release>:
 80016e0:	4801      	ldr	r0, [pc, #4]	; (80016e8 <__sfp_lock_release+0x8>)
 80016e2:	f7fe bfa7 	b.w	8000634 <__retarget_lock_release_recursive>
 80016e6:	bf00      	nop
 80016e8:	20000854 	.word	0x20000854

080016ec <_malloc_trim_r>:
 80016ec:	b5f8      	push	{r3, r4, r5, r6, r7, lr}
 80016ee:	4f24      	ldr	r7, [pc, #144]	; (8001780 <_malloc_trim_r+0x94>)
 80016f0:	460c      	mov	r4, r1
 80016f2:	4606      	mov	r6, r0
 80016f4:	f7ff fbba 	bl	8000e6c <__malloc_lock>
 80016f8:	68ba      	ldr	r2, [r7, #8]
 80016fa:	6855      	ldr	r5, [r2, #4]
 80016fc:	f5c4 637e 	rsb	r3, r4, #4064	; 0xfe0
 8001700:	330f      	adds	r3, #15
 8001702:	f025 0503 	bic.w	r5, r5, #3
 8001706:	442b      	add	r3, r5
 8001708:	f423 637f 	bic.w	r3, r3, #4080	; 0xff0
 800170c:	f023 030f 	bic.w	r3, r3, #15
 8001710:	f5a3 5480 	sub.w	r4, r3, #4096	; 0x1000
 8001714:	f5b4 5f80 	cmp.w	r4, #4096	; 0x1000
 8001718:	db07      	blt.n	800172a <_malloc_trim_r+0x3e>
 800171a:	2100      	movs	r1, #0
 800171c:	4630      	mov	r0, r6
 800171e:	f7ff fd9d 	bl	800125c <_sbrk_r>
 8001722:	68bb      	ldr	r3, [r7, #8]
 8001724:	442b      	add	r3, r5
 8001726:	4298      	cmp	r0, r3
 8001728:	d004      	beq.n	8001734 <_malloc_trim_r+0x48>
 800172a:	4630      	mov	r0, r6
 800172c:	f7ff fba4 	bl	8000e78 <__malloc_unlock>
 8001730:	2000      	movs	r0, #0
 8001732:	bdf8      	pop	{r3, r4, r5, r6, r7, pc}
 8001734:	4261      	negs	r1, r4
 8001736:	4630      	mov	r0, r6
 8001738:	f7ff fd90 	bl	800125c <_sbrk_r>
 800173c:	3001      	adds	r0, #1
 800173e:	d00d      	beq.n	800175c <_malloc_trim_r+0x70>
 8001740:	4a10      	ldr	r2, [pc, #64]	; (8001784 <_malloc_trim_r+0x98>)
 8001742:	68bb      	ldr	r3, [r7, #8]
 8001744:	1b2d      	subs	r5, r5, r4
 8001746:	f045 0501 	orr.w	r5, r5, #1
 800174a:	605d      	str	r5, [r3, #4]
 800174c:	6813      	ldr	r3, [r2, #0]
 800174e:	4630      	mov	r0, r6
 8001750:	1b1b      	subs	r3, r3, r4
 8001752:	6013      	str	r3, [r2, #0]
 8001754:	f7ff fb90 	bl	8000e78 <__malloc_unlock>
 8001758:	2001      	movs	r0, #1
 800175a:	bdf8      	pop	{r3, r4, r5, r6, r7, pc}
 800175c:	2100      	movs	r1, #0
 800175e:	4630      	mov	r0, r6
 8001760:	f7ff fd7c 	bl	800125c <_sbrk_r>
 8001764:	68ba      	ldr	r2, [r7, #8]
 8001766:	1a83      	subs	r3, r0, r2
 8001768:	2b0f      	cmp	r3, #15
 800176a:	ddde      	ble.n	800172a <_malloc_trim_r+0x3e>
 800176c:	f043 0301 	orr.w	r3, r3, #1
 8001770:	6053      	str	r3, [r2, #4]
 8001772:	4b05      	ldr	r3, [pc, #20]	; (8001788 <_malloc_trim_r+0x9c>)
 8001774:	4903      	ldr	r1, [pc, #12]	; (8001784 <_malloc_trim_r+0x98>)
 8001776:	681b      	ldr	r3, [r3, #0]
 8001778:	1ac0      	subs	r0, r0, r3
 800177a:	6008      	str	r0, [r1, #0]
 800177c:	e7d5      	b.n	800172a <_malloc_trim_r+0x3e>
 800177e:	bf00      	nop
 8001780:	20000440 	.word	0x20000440
 8001784:	2000085c 	.word	0x2000085c
 8001788:	20000848 	.word	0x20000848

0800178c <_free_r>:
 800178c:	2900      	cmp	r1, #0
 800178e:	d061      	beq.n	8001854 <_free_r+0xc8>
 8001790:	b5f8      	push	{r3, r4, r5, r6, r7, lr}
 8001792:	460c      	mov	r4, r1
 8001794:	4606      	mov	r6, r0
 8001796:	f7ff fb69 	bl	8000e6c <__malloc_lock>
 800179a:	f854 2c04 	ldr.w	r2, [r4, #-4]
 800179e:	4f7b      	ldr	r7, [pc, #492]	; (800198c <_free_r+0x200>)
 80017a0:	f1a4 0508 	sub.w	r5, r4, #8
 80017a4:	f022 0101 	bic.w	r1, r2, #1
 80017a8:	eb05 0c01 	add.w	ip, r5, r1
 80017ac:	68b8      	ldr	r0, [r7, #8]
 80017ae:	f8dc 3004 	ldr.w	r3, [ip, #4]
 80017b2:	4560      	cmp	r0, ip
 80017b4:	f023 0303 	bic.w	r3, r3, #3
 80017b8:	f000 808b 	beq.w	80018d2 <_free_r+0x146>
 80017bc:	07d2      	lsls	r2, r2, #31
 80017be:	f8cc 3004 	str.w	r3, [ip, #4]
 80017c2:	d432      	bmi.n	800182a <_free_r+0x9e>
 80017c4:	f854 2c08 	ldr.w	r2, [r4, #-8]
 80017c8:	1aad      	subs	r5, r5, r2
 80017ca:	4411      	add	r1, r2
 80017cc:	68aa      	ldr	r2, [r5, #8]
 80017ce:	f107 0008 	add.w	r0, r7, #8
 80017d2:	4282      	cmp	r2, r0
 80017d4:	d06a      	beq.n	80018ac <_free_r+0x120>
 80017d6:	eb0c 0403 	add.w	r4, ip, r3
 80017da:	f8d4 e004 	ldr.w	lr, [r4, #4]
 80017de:	68ec      	ldr	r4, [r5, #12]
 80017e0:	60d4      	str	r4, [r2, #12]
 80017e2:	f01e 0f01 	tst.w	lr, #1
 80017e6:	60a2      	str	r2, [r4, #8]
 80017e8:	f000 8097 	beq.w	800191a <_free_r+0x18e>
 80017ec:	f041 0301 	orr.w	r3, r1, #1
 80017f0:	606b      	str	r3, [r5, #4]
 80017f2:	f8cc 1000 	str.w	r1, [ip]
 80017f6:	f5b1 7f00 	cmp.w	r1, #512	; 0x200
 80017fa:	d235      	bcs.n	8001868 <_free_r+0xdc>
 80017fc:	687a      	ldr	r2, [r7, #4]
 80017fe:	08cb      	lsrs	r3, r1, #3
 8001800:	0948      	lsrs	r0, r1, #5
 8001802:	2101      	movs	r1, #1
 8001804:	3301      	adds	r3, #1
 8001806:	4081      	lsls	r1, r0
 8001808:	4311      	orrs	r1, r2
 800180a:	6079      	str	r1, [r7, #4]
 800180c:	eb07 02c3 	add.w	r2, r7, r3, lsl #3
 8001810:	f857 1033 	ldr.w	r1, [r7, r3, lsl #3]
 8001814:	3a08      	subs	r2, #8
 8001816:	e9c5 1202 	strd	r1, r2, [r5, #8]
 800181a:	f847 5033 	str.w	r5, [r7, r3, lsl #3]
 800181e:	60cd      	str	r5, [r1, #12]
 8001820:	4630      	mov	r0, r6
 8001822:	e8bd 40f8 	ldmia.w	sp!, {r3, r4, r5, r6, r7, lr}
 8001826:	f7ff bb27 	b.w	8000e78 <__malloc_unlock>
 800182a:	eb0c 0203 	add.w	r2, ip, r3
 800182e:	6852      	ldr	r2, [r2, #4]
 8001830:	07d0      	lsls	r0, r2, #31
 8001832:	d410      	bmi.n	8001856 <_free_r+0xca>
 8001834:	4419      	add	r1, r3
 8001836:	f107 0008 	add.w	r0, r7, #8
 800183a:	f8dc 3008 	ldr.w	r3, [ip, #8]
 800183e:	4283      	cmp	r3, r0
 8001840:	d073      	beq.n	800192a <_free_r+0x19e>
 8001842:	f8dc 200c 	ldr.w	r2, [ip, #12]
 8001846:	60da      	str	r2, [r3, #12]
 8001848:	6093      	str	r3, [r2, #8]
 800184a:	f041 0301 	orr.w	r3, r1, #1
 800184e:	606b      	str	r3, [r5, #4]
 8001850:	5069      	str	r1, [r5, r1]
 8001852:	e7d0      	b.n	80017f6 <_free_r+0x6a>
 8001854:	4770      	bx	lr
 8001856:	f041 0301 	orr.w	r3, r1, #1
 800185a:	f5b1 7f00 	cmp.w	r1, #512	; 0x200
 800185e:	f844 3c04 	str.w	r3, [r4, #-4]
 8001862:	f8cc 1000 	str.w	r1, [ip]
 8001866:	d3c9      	bcc.n	80017fc <_free_r+0x70>
 8001868:	f5b1 6f20 	cmp.w	r1, #2560	; 0xa00
 800186c:	ea4f 2351 	mov.w	r3, r1, lsr #9
 8001870:	d248      	bcs.n	8001904 <_free_r+0x178>
 8001872:	098b      	lsrs	r3, r1, #6
 8001874:	f103 0039 	add.w	r0, r3, #57	; 0x39
 8001878:	f103 0238 	add.w	r2, r3, #56	; 0x38
 800187c:	00c3      	lsls	r3, r0, #3
 800187e:	18f8      	adds	r0, r7, r3
 8001880:	58fb      	ldr	r3, [r7, r3]
 8001882:	3808      	subs	r0, #8
 8001884:	4298      	cmp	r0, r3
 8001886:	d059      	beq.n	800193c <_free_r+0x1b0>
 8001888:	685a      	ldr	r2, [r3, #4]
 800188a:	f022 0203 	bic.w	r2, r2, #3
 800188e:	428a      	cmp	r2, r1
 8001890:	d902      	bls.n	8001898 <_free_r+0x10c>
 8001892:	689b      	ldr	r3, [r3, #8]
 8001894:	4298      	cmp	r0, r3
 8001896:	d1f7      	bne.n	8001888 <_free_r+0xfc>
 8001898:	68d8      	ldr	r0, [r3, #12]
 800189a:	e9c5 3002 	strd	r3, r0, [r5, #8]
 800189e:	6085      	str	r5, [r0, #8]
 80018a0:	60dd      	str	r5, [r3, #12]
 80018a2:	4630      	mov	r0, r6
 80018a4:	e8bd 40f8 	ldmia.w	sp!, {r3, r4, r5, r6, r7, lr}
 80018a8:	f7ff bae6 	b.w	8000e78 <__malloc_unlock>
 80018ac:	eb0c 0203 	add.w	r2, ip, r3
 80018b0:	6852      	ldr	r2, [r2, #4]
 80018b2:	07d2      	lsls	r2, r2, #31
 80018b4:	d463      	bmi.n	800197e <_free_r+0x1f2>
 80018b6:	440b      	add	r3, r1
 80018b8:	e9dc 1202 	ldrd	r1, r2, [ip, #8]
 80018bc:	60ca      	str	r2, [r1, #12]
 80018be:	6091      	str	r1, [r2, #8]
 80018c0:	f043 0201 	orr.w	r2, r3, #1
 80018c4:	606a      	str	r2, [r5, #4]
 80018c6:	4630      	mov	r0, r6
 80018c8:	50eb      	str	r3, [r5, r3]
 80018ca:	e8bd 40f8 	ldmia.w	sp!, {r3, r4, r5, r6, r7, lr}
 80018ce:	f7ff bad3 	b.w	8000e78 <__malloc_unlock>
 80018d2:	440b      	add	r3, r1
 80018d4:	07d1      	lsls	r1, r2, #31
 80018d6:	d407      	bmi.n	80018e8 <_free_r+0x15c>
 80018d8:	f854 2c08 	ldr.w	r2, [r4, #-8]
 80018dc:	1aad      	subs	r5, r5, r2
 80018de:	4413      	add	r3, r2
 80018e0:	e9d5 1202 	ldrd	r1, r2, [r5, #8]
 80018e4:	60ca      	str	r2, [r1, #12]
 80018e6:	6091      	str	r1, [r2, #8]
 80018e8:	f043 0201 	orr.w	r2, r3, #1
 80018ec:	606a      	str	r2, [r5, #4]
 80018ee:	4a28      	ldr	r2, [pc, #160]	; (8001990 <_free_r+0x204>)
 80018f0:	60bd      	str	r5, [r7, #8]
 80018f2:	6812      	ldr	r2, [r2, #0]
 80018f4:	429a      	cmp	r2, r3
 80018f6:	d893      	bhi.n	8001820 <_free_r+0x94>
 80018f8:	4b26      	ldr	r3, [pc, #152]	; (8001994 <_free_r+0x208>)
 80018fa:	4630      	mov	r0, r6
 80018fc:	6819      	ldr	r1, [r3, #0]
 80018fe:	f7ff fef5 	bl	80016ec <_malloc_trim_r>
 8001902:	e78d      	b.n	8001820 <_free_r+0x94>
 8001904:	2b14      	cmp	r3, #20
 8001906:	d90a      	bls.n	800191e <_free_r+0x192>
 8001908:	2b54      	cmp	r3, #84	; 0x54
 800190a:	d81f      	bhi.n	800194c <_free_r+0x1c0>
 800190c:	0b0b      	lsrs	r3, r1, #12
 800190e:	f103 006f 	add.w	r0, r3, #111	; 0x6f
 8001912:	f103 026e 	add.w	r2, r3, #110	; 0x6e
 8001916:	00c3      	lsls	r3, r0, #3
 8001918:	e7b1      	b.n	800187e <_free_r+0xf2>
 800191a:	4419      	add	r1, r3
 800191c:	e78d      	b.n	800183a <_free_r+0xae>
 800191e:	f103 005c 	add.w	r0, r3, #92	; 0x5c
 8001922:	f103 025b 	add.w	r2, r3, #91	; 0x5b
 8001926:	00c3      	lsls	r3, r0, #3
 8001928:	e7a9      	b.n	800187e <_free_r+0xf2>
 800192a:	f041 0301 	orr.w	r3, r1, #1
 800192e:	e9c7 5504 	strd	r5, r5, [r7, #16]
 8001932:	e9c5 0002 	strd	r0, r0, [r5, #8]
 8001936:	606b      	str	r3, [r5, #4]
 8001938:	5069      	str	r1, [r5, r1]
 800193a:	e771      	b.n	8001820 <_free_r+0x94>
 800193c:	6879      	ldr	r1, [r7, #4]
 800193e:	1092      	asrs	r2, r2, #2
 8001940:	2401      	movs	r4, #1
 8001942:	fa04 f202 	lsl.w	r2, r4, r2
 8001946:	430a      	orrs	r2, r1
 8001948:	607a      	str	r2, [r7, #4]
 800194a:	e7a6      	b.n	800189a <_free_r+0x10e>
 800194c:	f5b3 7faa 	cmp.w	r3, #340	; 0x154
 8001950:	d806      	bhi.n	8001960 <_free_r+0x1d4>
 8001952:	0bcb      	lsrs	r3, r1, #15
 8001954:	f103 0078 	add.w	r0, r3, #120	; 0x78
 8001958:	f103 0277 	add.w	r2, r3, #119	; 0x77
 800195c:	00c3      	lsls	r3, r0, #3
 800195e:	e78e      	b.n	800187e <_free_r+0xf2>
 8001960:	f240 5254 	movw	r2, #1364	; 0x554
 8001964:	4293      	cmp	r3, r2
 8001966:	d806      	bhi.n	8001976 <_free_r+0x1ea>
 8001968:	0c8b      	lsrs	r3, r1, #18
 800196a:	f103 007d 	add.w	r0, r3, #125	; 0x7d
 800196e:	f103 027c 	add.w	r2, r3, #124	; 0x7c
 8001972:	00c3      	lsls	r3, r0, #3
 8001974:	e783      	b.n	800187e <_free_r+0xf2>
 8001976:	f44f 737e 	mov.w	r3, #1016	; 0x3f8
 800197a:	227e      	movs	r2, #126	; 0x7e
 800197c:	e77f      	b.n	800187e <_free_r+0xf2>
 800197e:	f041 0301 	orr.w	r3, r1, #1
 8001982:	606b      	str	r3, [r5, #4]
 8001984:	f8cc 1000 	str.w	r1, [ip]
 8001988:	e74a      	b.n	8001820 <_free_r+0x94>
 800198a:	bf00      	nop
 800198c:	20000440 	.word	0x20000440
 8001990:	2000084c 	.word	0x2000084c
 8001994:	2000088c 	.word	0x2000088c

08001998 <_fwalk_reent>:
 8001998:	e92d 43f8 	stmdb	sp!, {r3, r4, r5, r6, r7, r8, r9, lr}
 800199c:	4607      	mov	r7, r0
 800199e:	4688      	mov	r8, r1
 80019a0:	f500 7638 	add.w	r6, r0, #736	; 0x2e0
 80019a4:	f04f 0900 	mov.w	r9, #0
 80019a8:	e9d6 5401 	ldrd	r5, r4, [r6, #4]
 80019ac:	3d01      	subs	r5, #1
 80019ae:	d411      	bmi.n	80019d4 <_fwalk_reent+0x3c>
 80019b0:	89a3      	ldrh	r3, [r4, #12]
 80019b2:	2b01      	cmp	r3, #1
 80019b4:	f105 35ff 	add.w	r5, r5, #4294967295	; 0xffffffff
 80019b8:	d908      	bls.n	80019cc <_fwalk_reent+0x34>
 80019ba:	f9b4 300e 	ldrsh.w	r3, [r4, #14]
 80019be:	3301      	adds	r3, #1
 80019c0:	4621      	mov	r1, r4
 80019c2:	d003      	beq.n	80019cc <_fwalk_reent+0x34>
 80019c4:	4638      	mov	r0, r7
 80019c6:	47c0      	blx	r8
 80019c8:	ea49 0900 	orr.w	r9, r9, r0
 80019cc:	1c6b      	adds	r3, r5, #1
 80019ce:	f104 0468 	add.w	r4, r4, #104	; 0x68
 80019d2:	d1ed      	bne.n	80019b0 <_fwalk_reent+0x18>
 80019d4:	6836      	ldr	r6, [r6, #0]
 80019d6:	2e00      	cmp	r6, #0
 80019d8:	d1e6      	bne.n	80019a8 <_fwalk_reent+0x10>
 80019da:	4648      	mov	r0, r9
 80019dc:	e8bd 83f8 	ldmia.w	sp!, {r3, r4, r5, r6, r7, r8, r9, pc}

080019e0 <__smakebuf_r>:
 80019e0:	e92d 41f0 	stmdb	sp!, {r4, r5, r6, r7, r8, lr}
 80019e4:	898b      	ldrh	r3, [r1, #12]
 80019e6:	460c      	mov	r4, r1
 80019e8:	0799      	lsls	r1, r3, #30
 80019ea:	b096      	sub	sp, #88	; 0x58
 80019ec:	d508      	bpl.n	8001a00 <__smakebuf_r+0x20>
 80019ee:	f104 0343 	add.w	r3, r4, #67	; 0x43
 80019f2:	2201      	movs	r2, #1
 80019f4:	e9c4 3204 	strd	r3, r2, [r4, #16]
 80019f8:	6023      	str	r3, [r4, #0]
 80019fa:	b016      	add	sp, #88	; 0x58
 80019fc:	e8bd 81f0 	ldmia.w	sp!, {r4, r5, r6, r7, r8, pc}
 8001a00:	f9b4 100e 	ldrsh.w	r1, [r4, #14]
 8001a04:	2900      	cmp	r1, #0
 8001a06:	4606      	mov	r6, r0
 8001a08:	db27      	blt.n	8001a5a <__smakebuf_r+0x7a>
 8001a0a:	466a      	mov	r2, sp
 8001a0c:	f000 f97e 	bl	8001d0c <_fstat_r>
 8001a10:	2800      	cmp	r0, #0
 8001a12:	db21      	blt.n	8001a58 <__smakebuf_r+0x78>
 8001a14:	9d01      	ldr	r5, [sp, #4]
 8001a16:	f405 4570 	and.w	r5, r5, #61440	; 0xf000
 8001a1a:	f5a5 5500 	sub.w	r5, r5, #8192	; 0x2000
 8001a1e:	fab5 f585 	clz	r5, r5
 8001a22:	f44f 6880 	mov.w	r8, #1024	; 0x400
 8001a26:	096d      	lsrs	r5, r5, #5
 8001a28:	f44f 6700 	mov.w	r7, #2048	; 0x800
 8001a2c:	4641      	mov	r1, r8
 8001a2e:	4630      	mov	r0, r6
 8001a30:	f7fe fe02 	bl	8000638 <_malloc_r>
 8001a34:	f9b4 300c 	ldrsh.w	r3, [r4, #12]
 8001a38:	b1f0      	cbz	r0, 8001a78 <__smakebuf_r+0x98>
 8001a3a:	4a20      	ldr	r2, [pc, #128]	; (8001abc <__smakebuf_r+0xdc>)
 8001a3c:	63f2      	str	r2, [r6, #60]	; 0x3c
 8001a3e:	f043 0380 	orr.w	r3, r3, #128	; 0x80
 8001a42:	f8c4 8014 	str.w	r8, [r4, #20]
 8001a46:	81a3      	strh	r3, [r4, #12]
 8001a48:	6020      	str	r0, [r4, #0]
 8001a4a:	6120      	str	r0, [r4, #16]
 8001a4c:	bb35      	cbnz	r5, 8001a9c <__smakebuf_r+0xbc>
 8001a4e:	433b      	orrs	r3, r7
 8001a50:	81a3      	strh	r3, [r4, #12]
 8001a52:	b016      	add	sp, #88	; 0x58
 8001a54:	e8bd 81f0 	ldmia.w	sp!, {r4, r5, r6, r7, r8, pc}
 8001a58:	89a3      	ldrh	r3, [r4, #12]
 8001a5a:	f013 0580 	ands.w	r5, r3, #128	; 0x80
 8001a5e:	d019      	beq.n	8001a94 <__smakebuf_r+0xb4>
 8001a60:	f04f 0840 	mov.w	r8, #64	; 0x40
 8001a64:	4641      	mov	r1, r8
 8001a66:	4630      	mov	r0, r6
 8001a68:	f7fe fde6 	bl	8000638 <_malloc_r>
 8001a6c:	2500      	movs	r5, #0
 8001a6e:	f9b4 300c 	ldrsh.w	r3, [r4, #12]
 8001a72:	462f      	mov	r7, r5
 8001a74:	2800      	cmp	r0, #0
 8001a76:	d1e0      	bne.n	8001a3a <__smakebuf_r+0x5a>
 8001a78:	059a      	lsls	r2, r3, #22
 8001a7a:	d4be      	bmi.n	80019fa <__smakebuf_r+0x1a>
 8001a7c:	f023 0303 	bic.w	r3, r3, #3
 8001a80:	f104 0243 	add.w	r2, r4, #67	; 0x43
 8001a84:	f043 0302 	orr.w	r3, r3, #2
 8001a88:	2101      	movs	r1, #1
 8001a8a:	e9c4 2104 	strd	r2, r1, [r4, #16]
 8001a8e:	81a3      	strh	r3, [r4, #12]
 8001a90:	6022      	str	r2, [r4, #0]
 8001a92:	e7b2      	b.n	80019fa <__smakebuf_r+0x1a>
 8001a94:	f44f 6880 	mov.w	r8, #1024	; 0x400
 8001a98:	462f      	mov	r7, r5
 8001a9a:	e7c7      	b.n	8001a2c <__smakebuf_r+0x4c>
 8001a9c:	f9b4 100e 	ldrsh.w	r1, [r4, #14]
 8001aa0:	4630      	mov	r0, r6
 8001aa2:	f000 f949 	bl	8001d38 <_isatty_r>
 8001aa6:	b910      	cbnz	r0, 8001aae <__smakebuf_r+0xce>
 8001aa8:	f9b4 300c 	ldrsh.w	r3, [r4, #12]
 8001aac:	e7cf      	b.n	8001a4e <__smakebuf_r+0x6e>
 8001aae:	89a3      	ldrh	r3, [r4, #12]
 8001ab0:	f023 0303 	bic.w	r3, r3, #3
 8001ab4:	f043 0301 	orr.w	r3, r3, #1
 8001ab8:	b21b      	sxth	r3, r3
 8001aba:	e7c8      	b.n	8001a4e <__smakebuf_r+0x6e>
 8001abc:	080015bd 	.word	0x080015bd

08001ac0 <memset>:
 8001ac0:	0783      	lsls	r3, r0, #30
 8001ac2:	b530      	push	{r4, r5, lr}
 8001ac4:	d048      	beq.n	8001b58 <memset+0x98>
 8001ac6:	1e54      	subs	r4, r2, #1
 8001ac8:	2a00      	cmp	r2, #0
 8001aca:	d03f      	beq.n	8001b4c <memset+0x8c>
 8001acc:	b2ca      	uxtb	r2, r1
 8001ace:	4603      	mov	r3, r0
 8001ad0:	e001      	b.n	8001ad6 <memset+0x16>
 8001ad2:	3c01      	subs	r4, #1
 8001ad4:	d33a      	bcc.n	8001b4c <memset+0x8c>
 8001ad6:	f803 2b01 	strb.w	r2, [r3], #1
 8001ada:	079d      	lsls	r5, r3, #30
 8001adc:	d1f9      	bne.n	8001ad2 <memset+0x12>
 8001ade:	2c03      	cmp	r4, #3
 8001ae0:	d92d      	bls.n	8001b3e <memset+0x7e>
 8001ae2:	b2cd      	uxtb	r5, r1
 8001ae4:	ea45 2505 	orr.w	r5, r5, r5, lsl #8
 8001ae8:	2c0f      	cmp	r4, #15
 8001aea:	ea45 4505 	orr.w	r5, r5, r5, lsl #16
 8001aee:	d936      	bls.n	8001b5e <memset+0x9e>
 8001af0:	f1a4 0210 	sub.w	r2, r4, #16
 8001af4:	f022 0c0f 	bic.w	ip, r2, #15
 8001af8:	f103 0e20 	add.w	lr, r3, #32
 8001afc:	44e6      	add	lr, ip
 8001afe:	ea4f 1c12 	mov.w	ip, r2, lsr #4
 8001b02:	f103 0210 	add.w	r2, r3, #16
 8001b06:	e942 5504 	strd	r5, r5, [r2, #-16]
 8001b0a:	e942 5502 	strd	r5, r5, [r2, #-8]
 8001b0e:	3210      	adds	r2, #16
 8001b10:	4572      	cmp	r2, lr
 8001b12:	d1f8      	bne.n	8001b06 <memset+0x46>
 8001b14:	f10c 0201 	add.w	r2, ip, #1
 8001b18:	f014 0f0c 	tst.w	r4, #12
 8001b1c:	eb03 1202 	add.w	r2, r3, r2, lsl #4
 8001b20:	f004 0c0f 	and.w	ip, r4, #15
 8001b24:	d013      	beq.n	8001b4e <memset+0x8e>
 8001b26:	f1ac 0304 	sub.w	r3, ip, #4
 8001b2a:	f023 0303 	bic.w	r3, r3, #3
 8001b2e:	3304      	adds	r3, #4
 8001b30:	4413      	add	r3, r2
 8001b32:	f842 5b04 	str.w	r5, [r2], #4
 8001b36:	4293      	cmp	r3, r2
 8001b38:	d1fb      	bne.n	8001b32 <memset+0x72>
 8001b3a:	f00c 0403 	and.w	r4, ip, #3
 8001b3e:	b12c      	cbz	r4, 8001b4c <memset+0x8c>
 8001b40:	b2ca      	uxtb	r2, r1
 8001b42:	441c      	add	r4, r3
 8001b44:	f803 2b01 	strb.w	r2, [r3], #1
 8001b48:	429c      	cmp	r4, r3
 8001b4a:	d1fb      	bne.n	8001b44 <memset+0x84>
 8001b4c:	bd30      	pop	{r4, r5, pc}
 8001b4e:	4664      	mov	r4, ip
 8001b50:	4613      	mov	r3, r2
 8001b52:	2c00      	cmp	r4, #0
 8001b54:	d1f4      	bne.n	8001b40 <memset+0x80>
 8001b56:	e7f9      	b.n	8001b4c <memset+0x8c>
 8001b58:	4603      	mov	r3, r0
 8001b5a:	4614      	mov	r4, r2
 8001b5c:	e7bf      	b.n	8001ade <memset+0x1e>
 8001b5e:	461a      	mov	r2, r3
 8001b60:	46a4      	mov	ip, r4
 8001b62:	e7e0      	b.n	8001b26 <memset+0x66>

08001b64 <__sread>:
 8001b64:	b510      	push	{r4, lr}
 8001b66:	460c      	mov	r4, r1
 8001b68:	f9b1 100e 	ldrsh.w	r1, [r1, #14]
 8001b6c:	f000 f90c 	bl	8001d88 <_read_r>
 8001b70:	2800      	cmp	r0, #0
 8001b72:	db03      	blt.n	8001b7c <__sread+0x18>
 8001b74:	6d23      	ldr	r3, [r4, #80]	; 0x50
 8001b76:	4403      	add	r3, r0
 8001b78:	6523      	str	r3, [r4, #80]	; 0x50
 8001b7a:	bd10      	pop	{r4, pc}
 8001b7c:	89a3      	ldrh	r3, [r4, #12]
 8001b7e:	f423 5380 	bic.w	r3, r3, #4096	; 0x1000
 8001b82:	81a3      	strh	r3, [r4, #12]
 8001b84:	bd10      	pop	{r4, pc}
 8001b86:	bf00      	nop

08001b88 <__swrite>:
 8001b88:	e92d 41f0 	stmdb	sp!, {r4, r5, r6, r7, r8, lr}
 8001b8c:	460c      	mov	r4, r1
 8001b8e:	f9b1 100c 	ldrsh.w	r1, [r1, #12]
 8001b92:	461f      	mov	r7, r3
 8001b94:	05cb      	lsls	r3, r1, #23
 8001b96:	4605      	mov	r5, r0
 8001b98:	4616      	mov	r6, r2
 8001b9a:	d40b      	bmi.n	8001bb4 <__swrite+0x2c>
 8001b9c:	f421 5180 	bic.w	r1, r1, #4096	; 0x1000
 8001ba0:	81a1      	strh	r1, [r4, #12]
 8001ba2:	463b      	mov	r3, r7
 8001ba4:	f9b4 100e 	ldrsh.w	r1, [r4, #14]
 8001ba8:	4632      	mov	r2, r6
 8001baa:	4628      	mov	r0, r5
 8001bac:	e8bd 41f0 	ldmia.w	sp!, {r4, r5, r6, r7, r8, lr}
 8001bb0:	f000 b81e 	b.w	8001bf0 <_write_r>
 8001bb4:	f9b4 100e 	ldrsh.w	r1, [r4, #14]
 8001bb8:	2302      	movs	r3, #2
 8001bba:	2200      	movs	r2, #0
 8001bbc:	f000 f8ce 	bl	8001d5c <_lseek_r>
 8001bc0:	f9b4 100c 	ldrsh.w	r1, [r4, #12]
 8001bc4:	e7ea      	b.n	8001b9c <__swrite+0x14>
 8001bc6:	bf00      	nop

08001bc8 <__sseek>:
 8001bc8:	b510      	push	{r4, lr}
 8001bca:	460c      	mov	r4, r1
 8001bcc:	f9b1 100e 	ldrsh.w	r1, [r1, #14]
 8001bd0:	f000 f8c4 	bl	8001d5c <_lseek_r>
 8001bd4:	89a3      	ldrh	r3, [r4, #12]
 8001bd6:	1c42      	adds	r2, r0, #1
 8001bd8:	bf0e      	itee	eq
 8001bda:	f423 5380 	biceq.w	r3, r3, #4096	; 0x1000
 8001bde:	f443 5380 	orrne.w	r3, r3, #4096	; 0x1000
 8001be2:	6520      	strne	r0, [r4, #80]	; 0x50
 8001be4:	81a3      	strh	r3, [r4, #12]
 8001be6:	bd10      	pop	{r4, pc}

08001be8 <__sclose>:
 8001be8:	f9b1 100e 	ldrsh.w	r1, [r1, #14]
 8001bec:	f000 b816 	b.w	8001c1c <_close_r>

08001bf0 <_write_r>:
 8001bf0:	b538      	push	{r3, r4, r5, lr}
 8001bf2:	460c      	mov	r4, r1
 8001bf4:	4d08      	ldr	r5, [pc, #32]	; (8001c18 <_write_r+0x28>)
 8001bf6:	4684      	mov	ip, r0
 8001bf8:	4611      	mov	r1, r2
 8001bfa:	4620      	mov	r0, r4
 8001bfc:	461a      	mov	r2, r3
 8001bfe:	2300      	movs	r3, #0
 8001c00:	602b      	str	r3, [r5, #0]
 8001c02:	4664      	mov	r4, ip
 8001c04:	f000 f90c 	bl	8001e20 <_write>
 8001c08:	1c43      	adds	r3, r0, #1
 8001c0a:	d000      	beq.n	8001c0e <_write_r+0x1e>
 8001c0c:	bd38      	pop	{r3, r4, r5, pc}
 8001c0e:	682b      	ldr	r3, [r5, #0]
 8001c10:	2b00      	cmp	r3, #0
 8001c12:	d0fb      	beq.n	8001c0c <_write_r+0x1c>
 8001c14:	6023      	str	r3, [r4, #0]
 8001c16:	bd38      	pop	{r3, r4, r5, pc}
 8001c18:	20000890 	.word	0x20000890

08001c1c <_close_r>:
 8001c1c:	b538      	push	{r3, r4, r5, lr}
 8001c1e:	4d07      	ldr	r5, [pc, #28]	; (8001c3c <_close_r+0x20>)
 8001c20:	2200      	movs	r2, #0
 8001c22:	4604      	mov	r4, r0
 8001c24:	4608      	mov	r0, r1
 8001c26:	602a      	str	r2, [r5, #0]
 8001c28:	f000 f8c4 	bl	8001db4 <_close>
 8001c2c:	1c43      	adds	r3, r0, #1
 8001c2e:	d000      	beq.n	8001c32 <_close_r+0x16>
 8001c30:	bd38      	pop	{r3, r4, r5, pc}
 8001c32:	682b      	ldr	r3, [r5, #0]
 8001c34:	2b00      	cmp	r3, #0
 8001c36:	d0fb      	beq.n	8001c30 <_close_r+0x14>
 8001c38:	6023      	str	r3, [r4, #0]
 8001c3a:	bd38      	pop	{r3, r4, r5, pc}
 8001c3c:	20000890 	.word	0x20000890

08001c40 <_fclose_r>:
 8001c40:	b570      	push	{r4, r5, r6, lr}
 8001c42:	2900      	cmp	r1, #0
 8001c44:	d04b      	beq.n	8001cde <_fclose_r+0x9e>
 8001c46:	4606      	mov	r6, r0
 8001c48:	460c      	mov	r4, r1
 8001c4a:	b110      	cbz	r0, 8001c52 <_fclose_r+0x12>
 8001c4c:	6b83      	ldr	r3, [r0, #56]	; 0x38
 8001c4e:	2b00      	cmp	r3, #0
 8001c50:	d048      	beq.n	8001ce4 <_fclose_r+0xa4>
 8001c52:	6e63      	ldr	r3, [r4, #100]	; 0x64
 8001c54:	07d8      	lsls	r0, r3, #31
 8001c56:	d534      	bpl.n	8001cc2 <_fclose_r+0x82>
 8001c58:	f9b4 300c 	ldrsh.w	r3, [r4, #12]
 8001c5c:	2b00      	cmp	r3, #0
 8001c5e:	d03e      	beq.n	8001cde <_fclose_r+0x9e>
 8001c60:	4621      	mov	r1, r4
 8001c62:	4630      	mov	r0, r6
 8001c64:	f7ff fbe4 	bl	8001430 <__sflush_r>
 8001c68:	6ae3      	ldr	r3, [r4, #44]	; 0x2c
 8001c6a:	4605      	mov	r5, r0
 8001c6c:	b133      	cbz	r3, 8001c7c <_fclose_r+0x3c>
 8001c6e:	69e1      	ldr	r1, [r4, #28]
 8001c70:	4630      	mov	r0, r6
 8001c72:	4798      	blx	r3
 8001c74:	2800      	cmp	r0, #0
 8001c76:	bfb8      	it	lt
 8001c78:	f04f 35ff 	movlt.w	r5, #4294967295	; 0xffffffff
 8001c7c:	89a3      	ldrh	r3, [r4, #12]
 8001c7e:	061a      	lsls	r2, r3, #24
 8001c80:	d43b      	bmi.n	8001cfa <_fclose_r+0xba>
 8001c82:	6b21      	ldr	r1, [r4, #48]	; 0x30
 8001c84:	b141      	cbz	r1, 8001c98 <_fclose_r+0x58>
 8001c86:	f104 0340 	add.w	r3, r4, #64	; 0x40
 8001c8a:	4299      	cmp	r1, r3
 8001c8c:	d002      	beq.n	8001c94 <_fclose_r+0x54>
 8001c8e:	4630      	mov	r0, r6
 8001c90:	f7ff fd7c 	bl	800178c <_free_r>
 8001c94:	2300      	movs	r3, #0
 8001c96:	6323      	str	r3, [r4, #48]	; 0x30
 8001c98:	6c61      	ldr	r1, [r4, #68]	; 0x44
 8001c9a:	b121      	cbz	r1, 8001ca6 <_fclose_r+0x66>
 8001c9c:	4630      	mov	r0, r6
 8001c9e:	f7ff fd75 	bl	800178c <_free_r>
 8001ca2:	2300      	movs	r3, #0
 8001ca4:	6463      	str	r3, [r4, #68]	; 0x44
 8001ca6:	f7ff fd15 	bl	80016d4 <__sfp_lock_acquire>
 8001caa:	6e63      	ldr	r3, [r4, #100]	; 0x64
 8001cac:	2200      	movs	r2, #0
 8001cae:	07db      	lsls	r3, r3, #31
 8001cb0:	81a2      	strh	r2, [r4, #12]
 8001cb2:	d527      	bpl.n	8001d04 <_fclose_r+0xc4>
 8001cb4:	6da0      	ldr	r0, [r4, #88]	; 0x58
 8001cb6:	f7fe fcb9 	bl	800062c <__retarget_lock_close_recursive>
 8001cba:	f7ff fd11 	bl	80016e0 <__sfp_lock_release>
 8001cbe:	4628      	mov	r0, r5
 8001cc0:	bd70      	pop	{r4, r5, r6, pc}
 8001cc2:	89a3      	ldrh	r3, [r4, #12]
 8001cc4:	0599      	lsls	r1, r3, #22
 8001cc6:	d4cb      	bmi.n	8001c60 <_fclose_r+0x20>
 8001cc8:	6da0      	ldr	r0, [r4, #88]	; 0x58
 8001cca:	f7fe fcb1 	bl	8000630 <__retarget_lock_acquire_recursive>
 8001cce:	f9b4 300c 	ldrsh.w	r3, [r4, #12]
 8001cd2:	2b00      	cmp	r3, #0
 8001cd4:	d1c4      	bne.n	8001c60 <_fclose_r+0x20>
 8001cd6:	6e65      	ldr	r5, [r4, #100]	; 0x64
 8001cd8:	f015 0501 	ands.w	r5, r5, #1
 8001cdc:	d008      	beq.n	8001cf0 <_fclose_r+0xb0>
 8001cde:	2500      	movs	r5, #0
 8001ce0:	4628      	mov	r0, r5
 8001ce2:	bd70      	pop	{r4, r5, r6, pc}
 8001ce4:	f7ff fc70 	bl	80015c8 <__sinit>
 8001ce8:	6e63      	ldr	r3, [r4, #100]	; 0x64
 8001cea:	07d8      	lsls	r0, r3, #31
 8001cec:	d4b4      	bmi.n	8001c58 <_fclose_r+0x18>
 8001cee:	e7e8      	b.n	8001cc2 <_fclose_r+0x82>
 8001cf0:	6da0      	ldr	r0, [r4, #88]	; 0x58
 8001cf2:	f7fe fc9f 	bl	8000634 <__retarget_lock_release_recursive>
 8001cf6:	4628      	mov	r0, r5
 8001cf8:	bd70      	pop	{r4, r5, r6, pc}
 8001cfa:	6921      	ldr	r1, [r4, #16]
 8001cfc:	4630      	mov	r0, r6
 8001cfe:	f7ff fd45 	bl	800178c <_free_r>
 8001d02:	e7be      	b.n	8001c82 <_fclose_r+0x42>
 8001d04:	6da0      	ldr	r0, [r4, #88]	; 0x58
 8001d06:	f7fe fc95 	bl	8000634 <__retarget_lock_release_recursive>
 8001d0a:	e7d3      	b.n	8001cb4 <_fclose_r+0x74>

08001d0c <_fstat_r>:
 8001d0c:	b570      	push	{r4, r5, r6, lr}
 8001d0e:	460c      	mov	r4, r1
 8001d10:	4d08      	ldr	r5, [pc, #32]	; (8001d34 <_fstat_r+0x28>)
 8001d12:	4603      	mov	r3, r0
 8001d14:	2600      	movs	r6, #0
 8001d16:	4620      	mov	r0, r4
 8001d18:	4611      	mov	r1, r2
 8001d1a:	461c      	mov	r4, r3
 8001d1c:	602e      	str	r6, [r5, #0]
 8001d1e:	f000 f851 	bl	8001dc4 <_fstat>
 8001d22:	1c43      	adds	r3, r0, #1
 8001d24:	d000      	beq.n	8001d28 <_fstat_r+0x1c>
 8001d26:	bd70      	pop	{r4, r5, r6, pc}
 8001d28:	682b      	ldr	r3, [r5, #0]
 8001d2a:	2b00      	cmp	r3, #0
 8001d2c:	d0fb      	beq.n	8001d26 <_fstat_r+0x1a>
 8001d2e:	6023      	str	r3, [r4, #0]
 8001d30:	bd70      	pop	{r4, r5, r6, pc}
 8001d32:	bf00      	nop
 8001d34:	20000890 	.word	0x20000890

08001d38 <_isatty_r>:
 8001d38:	b538      	push	{r3, r4, r5, lr}
 8001d3a:	4d07      	ldr	r5, [pc, #28]	; (8001d58 <_isatty_r+0x20>)
 8001d3c:	2200      	movs	r2, #0
 8001d3e:	4604      	mov	r4, r0
 8001d40:	4608      	mov	r0, r1
 8001d42:	602a      	str	r2, [r5, #0]
 8001d44:	f000 f846 	bl	8001dd4 <_isatty>
 8001d48:	1c43      	adds	r3, r0, #1
 8001d4a:	d000      	beq.n	8001d4e <_isatty_r+0x16>
 8001d4c:	bd38      	pop	{r3, r4, r5, pc}
 8001d4e:	682b      	ldr	r3, [r5, #0]
 8001d50:	2b00      	cmp	r3, #0
 8001d52:	d0fb      	beq.n	8001d4c <_isatty_r+0x14>
 8001d54:	6023      	str	r3, [r4, #0]
 8001d56:	bd38      	pop	{r3, r4, r5, pc}
 8001d58:	20000890 	.word	0x20000890

08001d5c <_lseek_r>:
 8001d5c:	b538      	push	{r3, r4, r5, lr}
 8001d5e:	460c      	mov	r4, r1
 8001d60:	4d08      	ldr	r5, [pc, #32]	; (8001d84 <_lseek_r+0x28>)
 8001d62:	4684      	mov	ip, r0
 8001d64:	4611      	mov	r1, r2
 8001d66:	4620      	mov	r0, r4
 8001d68:	461a      	mov	r2, r3
 8001d6a:	2300      	movs	r3, #0
 8001d6c:	602b      	str	r3, [r5, #0]
 8001d6e:	4664      	mov	r4, ip
 8001d70:	f000 f838 	bl	8001de4 <_lseek>
 8001d74:	1c43      	adds	r3, r0, #1
 8001d76:	d000      	beq.n	8001d7a <_lseek_r+0x1e>
 8001d78:	bd38      	pop	{r3, r4, r5, pc}
 8001d7a:	682b      	ldr	r3, [r5, #0]
 8001d7c:	2b00      	cmp	r3, #0
 8001d7e:	d0fb      	beq.n	8001d78 <_lseek_r+0x1c>
 8001d80:	6023      	str	r3, [r4, #0]
 8001d82:	bd38      	pop	{r3, r4, r5, pc}
 8001d84:	20000890 	.word	0x20000890

08001d88 <_read_r>:
 8001d88:	b538      	push	{r3, r4, r5, lr}
 8001d8a:	460c      	mov	r4, r1
 8001d8c:	4d08      	ldr	r5, [pc, #32]	; (8001db0 <_read_r+0x28>)
 8001d8e:	4684      	mov	ip, r0
 8001d90:	4611      	mov	r1, r2
 8001d92:	4620      	mov	r0, r4
 8001d94:	461a      	mov	r2, r3
 8001d96:	2300      	movs	r3, #0
 8001d98:	602b      	str	r3, [r5, #0]
 8001d9a:	4664      	mov	r4, ip
 8001d9c:	f000 f82a 	bl	8001df4 <_read>
 8001da0:	1c43      	adds	r3, r0, #1
 8001da2:	d000      	beq.n	8001da6 <_read_r+0x1e>
 8001da4:	bd38      	pop	{r3, r4, r5, pc}
 8001da6:	682b      	ldr	r3, [r5, #0]
 8001da8:	2b00      	cmp	r3, #0
 8001daa:	d0fb      	beq.n	8001da4 <_read_r+0x1c>
 8001dac:	6023      	str	r3, [r4, #0]
 8001dae:	bd38      	pop	{r3, r4, r5, pc}
 8001db0:	20000890 	.word	0x20000890

08001db4 <_close>:
 8001db4:	4b02      	ldr	r3, [pc, #8]	; (8001dc0 <_close+0xc>)
 8001db6:	2258      	movs	r2, #88	; 0x58
 8001db8:	601a      	str	r2, [r3, #0]
 8001dba:	f04f 30ff 	mov.w	r0, #4294967295	; 0xffffffff
 8001dbe:	4770      	bx	lr
 8001dc0:	20000890 	.word	0x20000890

08001dc4 <_fstat>:
 8001dc4:	4b02      	ldr	r3, [pc, #8]	; (8001dd0 <_fstat+0xc>)
 8001dc6:	2258      	movs	r2, #88	; 0x58
 8001dc8:	601a      	str	r2, [r3, #0]
 8001dca:	f04f 30ff 	mov.w	r0, #4294967295	; 0xffffffff
 8001dce:	4770      	bx	lr
 8001dd0:	20000890 	.word	0x20000890

08001dd4 <_isatty>:
 8001dd4:	4b02      	ldr	r3, [pc, #8]	; (8001de0 <_isatty+0xc>)
 8001dd6:	2258      	movs	r2, #88	; 0x58
 8001dd8:	601a      	str	r2, [r3, #0]
 8001dda:	2000      	movs	r0, #0
 8001ddc:	4770      	bx	lr
 8001dde:	bf00      	nop
 8001de0:	20000890 	.word	0x20000890

08001de4 <_lseek>:
 8001de4:	4b02      	ldr	r3, [pc, #8]	; (8001df0 <_lseek+0xc>)
 8001de6:	2258      	movs	r2, #88	; 0x58
 8001de8:	601a      	str	r2, [r3, #0]
 8001dea:	f04f 30ff 	mov.w	r0, #4294967295	; 0xffffffff
 8001dee:	4770      	bx	lr
 8001df0:	20000890 	.word	0x20000890

08001df4 <_read>:
 8001df4:	4b02      	ldr	r3, [pc, #8]	; (8001e00 <_read+0xc>)
 8001df6:	2258      	movs	r2, #88	; 0x58
 8001df8:	601a      	str	r2, [r3, #0]
 8001dfa:	f04f 30ff 	mov.w	r0, #4294967295	; 0xffffffff
 8001dfe:	4770      	bx	lr
 8001e00:	20000890 	.word	0x20000890

08001e04 <_sbrk>:
 8001e04:	4a04      	ldr	r2, [pc, #16]	; (8001e18 <_sbrk+0x14>)
 8001e06:	4905      	ldr	r1, [pc, #20]	; (8001e1c <_sbrk+0x18>)
 8001e08:	6813      	ldr	r3, [r2, #0]
 8001e0a:	2b00      	cmp	r3, #0
 8001e0c:	bf08      	it	eq
 8001e0e:	460b      	moveq	r3, r1
 8001e10:	4418      	add	r0, r3
 8001e12:	6010      	str	r0, [r2, #0]
 8001e14:	4618      	mov	r0, r3
 8001e16:	4770      	bx	lr
 8001e18:	20000894 	.word	0x20000894
 8001e1c:	20000898 	.word	0x20000898

08001e20 <_write>:
 8001e20:	4b02      	ldr	r3, [pc, #8]	; (8001e2c <_write+0xc>)
 8001e22:	2258      	movs	r2, #88	; 0x58
 8001e24:	601a      	str	r2, [r3, #0]
 8001e26:	f04f 30ff 	mov.w	r0, #4294967295	; 0xffffffff
 8001e2a:	4770      	bx	lr
 8001e2c:	20000890 	.word	0x20000890
 8001e30:	6c6c6548 	.word	0x6c6c6548
 8001e34:	6f77206f 	.word	0x6f77206f
 8001e38:	21646c72 	.word	0x21646c72
 8001e3c:	00000000 	.word	0x00000000
